	.file	"bdf_rle.c"
	.text
Ltext0:
	.def	_bg_err;	.scl	3;	.type	32;	.endef
_bg_err:
LFB12:
	.file 1 "bdf_rle.c"
	.loc 1 271 0
	.cfi_startproc
	pushl	%ebp
	.cfi_def_cfa_offset 8
	.cfi_offset 5, -8
	movl	%esp, %ebp
	.cfi_def_cfa_register 5
	subl	$24, %esp
	.loc 1 272 0
	movl	8(%ebp), %eax
	movl	%eax, (%esp)
	call	_puts
	.loc 1 273 0
	nop
	leave
	.cfi_restore 5
	.cfi_def_cfa 4, 4
	ret
	.cfi_endproc
LFE12:
	.def	_bg_init_rle;	.scl	3;	.type	32;	.endef
_bg_init_rle:
LFB13:
	.loc 1 276 0
	.cfi_startproc
	pushl	%ebp
	.cfi_def_cfa_offset 8
	.cfi_offset 5, -8
	movl	%esp, %ebp
	.cfi_def_cfa_register 5
	subl	$24, %esp
	.loc 1 277 0
	movl	8(%ebp), %eax
	movl	$0, 80(%eax)
	.loc 1 278 0
	movl	8(%ebp), %eax
	movl	$1, 76(%eax)
	.loc 1 279 0
	movl	8(%ebp), %eax
	movl	12(%ebp), %edx
	movl	%edx, 68(%eax)
	.loc 1 280 0
	movl	8(%ebp), %eax
	movl	16(%ebp), %edx
	movl	%edx, 72(%eax)
	.loc 1 281 0
	movl	8(%ebp), %eax
	movl	$0, 84(%eax)
	.loc 1 282 0
	movl	8(%ebp), %eax
	movl	$1, 88(%eax)
	.loc 1 283 0
	movl	8(%ebp), %eax
	movl	%eax, (%esp)
	call	_bg_ClearTargetData
	.loc 1 284 0
	nop
	leave
	.cfi_restore 5
	.cfi_def_cfa 4, 4
	ret
	.cfi_endproc
LFE13:
	.section .rdata,"dr"
LC0:
	.ascii "error in bg_01_rle 1 0\0"
LC1:
	.ascii "error in bg_01_rle 1 a\0"
LC2:
	.ascii "error in bg_01_rle 1 b\0"
	.text
	.def	_bg_01_rle;	.scl	3;	.type	32;	.endef
_bg_01_rle:
LFB14:
	.loc 1 287 0
	.cfi_startproc
	pushl	%ebp
	.cfi_def_cfa_offset 8
	.cfi_offset 5, -8
	movl	%esp, %ebp
	.cfi_def_cfa_register 5
	subl	$24, %esp
	.loc 1 288 0
	movl	8(%ebp), %eax
	movl	76(%eax), %eax
	testl	%eax, %eax
	jne	L4
	.loc 1 288 0 is_stmt 0 discriminator 1
	movl	8(%ebp), %eax
	movl	84(%eax), %eax
	cmpl	12(%ebp), %eax
	jne	L4
	.loc 1 288 0 discriminator 2
	movl	8(%ebp), %eax
	movl	88(%eax), %eax
	cmpl	16(%ebp), %eax
	jne	L4
	.loc 1 290 0 is_stmt 1
	movl	8(%ebp), %eax
	movl	80(%eax), %eax
	leal	1(%eax), %edx
	movl	8(%ebp), %eax
	movl	%edx, 80(%eax)
	.loc 1 291 0
	movl	$1, 8(%esp)
	movl	$1, 4(%esp)
	movl	8(%ebp), %eax
	movl	%eax, (%esp)
	call	_bg_AddTargetBits
	testl	%eax, %eax
	jne	L7
	.loc 1 292 0
	movl	$LC0, (%esp)
	call	_bg_err
	movl	$0, %eax
	jmp	L6
L4:
	.loc 1 296 0
	movl	8(%ebp), %eax
	movl	76(%eax), %eax
	testl	%eax, %eax
	jne	L8
	.loc 1 298 0
	movl	$0, 8(%esp)
	movl	$1, 4(%esp)
	movl	8(%ebp), %eax
	movl	%eax, (%esp)
	call	_bg_AddTargetBits
	testl	%eax, %eax
	jne	L9
	.loc 1 299 0
	movl	$LC0, (%esp)
	call	_bg_err
	movl	$0, %eax
	jmp	L6
L9:
	.loc 1 300 0
	movl	8(%ebp), %eax
	movl	80(%eax), %eax
	leal	1(%eax), %edx
	movl	8(%ebp), %eax
	movl	%edx, 80(%eax)
L8:
	.loc 1 302 0
	movl	8(%ebp), %eax
	movl	68(%eax), %eax
	movl	12(%ebp), %edx
	movl	%edx, 8(%esp)
	movl	%eax, 4(%esp)
	movl	8(%ebp), %eax
	movl	%eax, (%esp)
	call	_bg_AddTargetBits
	testl	%eax, %eax
	jne	L10
	.loc 1 303 0
	movl	$LC1, (%esp)
	call	_bg_err
	movl	$0, %eax
	jmp	L6
L10:
	.loc 1 304 0
	movl	8(%ebp), %eax
	movl	72(%eax), %eax
	movl	16(%ebp), %edx
	movl	%edx, 8(%esp)
	movl	%eax, 4(%esp)
	movl	8(%ebp), %eax
	movl	%eax, (%esp)
	call	_bg_AddTargetBits
	testl	%eax, %eax
	jne	L11
	.loc 1 305 0
	movl	$LC2, (%esp)
	call	_bg_err
	movl	$0, %eax
	jmp	L6
L11:
	.loc 1 316 0
	movl	8(%ebp), %eax
	movl	$0, 76(%eax)
	.loc 1 317 0
	movl	8(%ebp), %eax
	movl	80(%eax), %edx
	movl	8(%ebp), %eax
	movl	68(%eax), %eax
	addl	%eax, %edx
	movl	8(%ebp), %eax
	movl	%edx, 80(%eax)
	.loc 1 318 0
	movl	8(%ebp), %eax
	movl	80(%eax), %edx
	movl	8(%ebp), %eax
	movl	72(%eax), %eax
	addl	%eax, %edx
	movl	8(%ebp), %eax
	movl	%edx, 80(%eax)
	.loc 1 319 0
	movl	8(%ebp), %eax
	movl	12(%ebp), %edx
	movl	%edx, 84(%eax)
	.loc 1 320 0
	movl	8(%ebp), %eax
	movl	16(%ebp), %edx
	movl	%edx, 88(%eax)
L7:
	.loc 1 322 0
	movl	$1, %eax
L6:
	.loc 1 323 0
	leave
	.cfi_restore 5
	.cfi_def_cfa 4, 4
	ret
	.cfi_endproc
LFE14:
	.def	_bg_prepare_01_rle;	.scl	3;	.type	32;	.endef
_bg_prepare_01_rle:
LFB15:
	.loc 1 335 0
	.cfi_startproc
	pushl	%ebp
	.cfi_def_cfa_offset 8
	.cfi_offset 5, -8
	movl	%esp, %ebp
	.cfi_def_cfa_register 5
	subl	$24, %esp
	.loc 1 337 0
	jmp	L13
L16:
	.loc 1 339 0
	movl	8(%ebp), %eax
	movl	68(%eax), %eax
	movl	$1, %edx
	movl	%eax, %ecx
	sall	%cl, %edx
	movl	%edx, %eax
	subl	$1, %eax
	movl	$0, 8(%esp)
	movl	%eax, 4(%esp)
	movl	8(%ebp), %eax
	movl	%eax, (%esp)
	call	_bg_01_rle
	testl	%eax, %eax
	jne	L14
	.loc 1 340 0
	movl	$0, %eax
	jmp	L15
L14:
	.loc 1 341 0
	movl	8(%ebp), %eax
	movl	68(%eax), %eax
	movl	$1, %edx
	movl	%eax, %ecx
	sall	%cl, %edx
	movl	%edx, %eax
	movl	%eax, %edx
	movl	12(%ebp), %eax
	subl	%edx, %eax
	addl	$1, %eax
	movl	%eax, 12(%ebp)
L13:
	.loc 1 337 0
	movl	8(%ebp), %eax
	movl	68(%eax), %eax
	movl	$1, %edx
	movl	%eax, %ecx
	sall	%cl, %edx
	movl	%edx, %eax
	subl	$1, %eax
	cmpl	12(%ebp), %eax
	jbe	L16
	.loc 1 343 0
	jmp	L17
L19:
	.loc 1 345 0
	movl	8(%ebp), %eax
	movl	72(%eax), %eax
	movl	$1, %edx
	movl	%eax, %ecx
	sall	%cl, %edx
	movl	%edx, %eax
	subl	$1, %eax
	movl	%eax, 8(%esp)
	movl	12(%ebp), %eax
	movl	%eax, 4(%esp)
	movl	8(%ebp), %eax
	movl	%eax, (%esp)
	call	_bg_01_rle
	testl	%eax, %eax
	jne	L18
	.loc 1 346 0
	movl	$0, %eax
	jmp	L15
L18:
	.loc 1 347 0
	movl	$0, 12(%ebp)
	.loc 1 348 0
	movl	8(%ebp), %eax
	movl	72(%eax), %eax
	movl	$1, %edx
	movl	%eax, %ecx
	sall	%cl, %edx
	movl	%edx, %eax
	movl	%eax, %edx
	movl	16(%ebp), %eax
	subl	%edx, %eax
	addl	$1, %eax
	movl	%eax, 16(%ebp)
L17:
	.loc 1 343 0
	movl	8(%ebp), %eax
	movl	72(%eax), %eax
	movl	$1, %edx
	movl	%eax, %ecx
	sall	%cl, %edx
	movl	%edx, %eax
	subl	$1, %eax
	cmpl	16(%ebp), %eax
	jbe	L19
	.loc 1 350 0
	cmpl	$0, 12(%ebp)
	jne	L20
	.loc 1 350 0 is_stmt 0 discriminator 1
	cmpl	$0, 16(%ebp)
	je	L21
L20:
	.loc 1 351 0 is_stmt 1
	movl	16(%ebp), %eax
	movl	%eax, 8(%esp)
	movl	12(%ebp), %eax
	movl	%eax, 4(%esp)
	movl	8(%ebp), %eax
	movl	%eax, (%esp)
	call	_bg_01_rle
	testl	%eax, %eax
	jne	L21
	.loc 1 352 0
	movl	$0, %eax
	jmp	L15
L21:
	.loc 1 353 0
	movl	$1, %eax
L15:
	.loc 1 354 0
	leave
	.cfi_restore 5
	.cfi_def_cfa 4, 4
	ret
	.cfi_endproc
LFE15:
	.section .rdata,"dr"
LC3:
	.ascii "error in bg_rle_compress\0"
LC4:
	.ascii "bd_is_one == 0\0"
LC5:
	.ascii "bdf_rle.c\0"
	.text
	.globl	_bg_rle_compress
	.def	_bg_rle_compress;	.scl	2;	.type	32;	.endef
_bg_rle_compress:
LFB16:
	.loc 1 358 0
	.cfi_startproc
	pushl	%ebp
	.cfi_def_cfa_offset 8
	.cfi_offset 5, -8
	movl	%esp, %ebp
	.cfi_def_cfa_register 5
	pushl	%ebx
	subl	$52, %esp
	.cfi_offset 3, -12
	.loc 1 369 0
	cmpl	$0, 12(%ebp)
	jne	L23
	.loc 1 370 0
	movl	8(%ebp), %eax
	addl	$20, %eax
	movl	%eax, 12(%ebp)
L23:
	.loc 1 372 0
	movl	20(%ebp), %eax
	movl	%eax, 8(%esp)
	movl	16(%ebp), %eax
	movl	%eax, 4(%esp)
	movl	8(%ebp), %eax
	movl	%eax, (%esp)
	call	_bg_init_rle
	.loc 1 377 0
	movl	8(%ebp), %eax
	movl	8(%eax), %eax
	movzbl	%al, %eax
	movl	%eax, 4(%esp)
	movl	8(%ebp), %eax
	movl	%eax, (%esp)
	call	_bg_AddTargetData
	testl	%eax, %eax
	jns	L24
	.loc 1 378 0
	movl	$LC3, (%esp)
	call	_bg_err
	movl	$0, %eax
	jmp	L25
L24:
	.loc 1 380 0
	movl	$0, 4(%esp)
	movl	8(%ebp), %eax
	movl	%eax, (%esp)
	call	_bg_AddTargetData
	testl	%eax, %eax
	jns	L26
	.loc 1 381 0
	movl	$LC3, (%esp)
	call	_bg_err
	movl	$0, %eax
	jmp	L25
L26:
	.loc 1 382 0
	movl	12(%ebp), %eax
	movl	(%eax), %eax
	movl	%eax, %edx
	movl	8(%ebp), %eax
	movl	(%eax), %eax
	movl	1164(%eax), %eax
	movl	%edx, 8(%esp)
	movl	%eax, 4(%esp)
	movl	8(%ebp), %eax
	movl	%eax, (%esp)
	call	_bg_AddTargetBits
	testl	%eax, %eax
	jne	L27
	.loc 1 383 0
	movl	$LC3, (%esp)
	call	_bg_err
	movl	$0, %eax
	jmp	L25
L27:
	.loc 1 384 0
	movl	12(%ebp), %eax
	movl	4(%eax), %eax
	movl	%eax, %edx
	movl	8(%ebp), %eax
	movl	(%eax), %eax
	movl	1168(%eax), %eax
	movl	%edx, 8(%esp)
	movl	%eax, 4(%esp)
	movl	8(%ebp), %eax
	movl	%eax, (%esp)
	call	_bg_AddTargetBits
	testl	%eax, %eax
	jne	L28
	.loc 1 385 0
	movl	$LC3, (%esp)
	call	_bg_err
	movl	$0, %eax
	jmp	L25
L28:
	.loc 1 386 0
	movl	12(%ebp), %eax
	movl	8(%eax), %edx
	movl	8(%ebp), %eax
	movl	(%eax), %eax
	movl	1156(%eax), %eax
	subl	$1, %eax
	movl	$1, %ebx
	movl	%eax, %ecx
	sall	%cl, %ebx
	movl	%ebx, %eax
	addl	%edx, %eax
	movl	%eax, %edx
	movl	8(%ebp), %eax
	movl	(%eax), %eax
	movl	1156(%eax), %eax
	movl	%edx, 8(%esp)
	movl	%eax, 4(%esp)
	movl	8(%ebp), %eax
	movl	%eax, (%esp)
	call	_bg_AddTargetBits
	testl	%eax, %eax
	jne	L29
	.loc 1 387 0
	movl	$LC3, (%esp)
	call	_bg_err
	movl	$0, %eax
	jmp	L25
L29:
	.loc 1 388 0
	movl	12(%ebp), %eax
	movl	12(%eax), %edx
	movl	8(%ebp), %eax
	movl	(%eax), %eax
	movl	1160(%eax), %eax
	subl	$1, %eax
	movl	$1, %ebx
	movl	%eax, %ecx
	sall	%cl, %ebx
	movl	%ebx, %eax
	addl	%edx, %eax
	movl	%eax, %edx
	movl	8(%ebp), %eax
	movl	(%eax), %eax
	movl	1160(%eax), %eax
	movl	%edx, 8(%esp)
	movl	%eax, 4(%esp)
	movl	8(%ebp), %eax
	movl	%eax, (%esp)
	call	_bg_AddTargetBits
	testl	%eax, %eax
	jne	L30
	.loc 1 389 0
	movl	$LC3, (%esp)
	call	_bg_err
	movl	$0, %eax
	jmp	L25
L30:
	.loc 1 391 0
	movl	8(%ebp), %eax
	movl	(%eax), %eax
	movl	1104(%eax), %eax
	testl	%eax, %eax
	jne	L31
	.loc 1 393 0
	movl	8(%ebp), %eax
	movl	12(%eax), %edx
	movl	8(%ebp), %eax
	movl	(%eax), %eax
	movl	1172(%eax), %eax
	subl	$1, %eax
	movl	$1, %ebx
	movl	%eax, %ecx
	sall	%cl, %ebx
	movl	%ebx, %eax
	addl	%edx, %eax
	movl	%eax, %edx
	movl	8(%ebp), %eax
	movl	(%eax), %eax
	movl	1172(%eax), %eax
	movl	%edx, 8(%esp)
	movl	%eax, 4(%esp)
	movl	8(%ebp), %eax
	movl	%eax, (%esp)
	call	_bg_AddTargetBits
	testl	%eax, %eax
	jne	L32
	.loc 1 394 0
	movl	$LC3, (%esp)
	call	_bg_err
	movl	$0, %eax
	jmp	L25
L31:
	.loc 1 396 0
	movl	8(%ebp), %eax
	movl	(%eax), %eax
	movl	1104(%eax), %eax
	cmpl	$2, %eax
	jne	L33
	.loc 1 398 0
	movl	12(%ebp), %eax
	movl	(%eax), %edx
	movl	8(%ebp), %eax
	movl	(%eax), %eax
	movl	1172(%eax), %eax
	subl	$1, %eax
	movl	$1, %ebx
	movl	%eax, %ecx
	sall	%cl, %ebx
	movl	%ebx, %eax
	addl	%edx, %eax
	movl	%eax, %edx
	movl	8(%ebp), %eax
	movl	(%eax), %eax
	movl	1172(%eax), %eax
	movl	%edx, 8(%esp)
	movl	%eax, 4(%esp)
	movl	8(%ebp), %eax
	movl	%eax, (%esp)
	call	_bg_AddTargetBits
	testl	%eax, %eax
	jne	L32
	.loc 1 399 0
	movl	$LC3, (%esp)
	call	_bg_err
	movl	$0, %eax
	jmp	L25
L33:
	.loc 1 403 0
	movl	12(%ebp), %eax
	movl	(%eax), %edx
	movl	8(%ebp), %eax
	movl	(%eax), %eax
	movl	1172(%eax), %eax
	subl	$1, %eax
	movl	$1, %ebx
	movl	%eax, %ecx
	sall	%cl, %ebx
	movl	%ebx, %eax
	addl	%edx, %eax
	movl	%eax, %edx
	movl	8(%ebp), %eax
	movl	(%eax), %eax
	movl	1172(%eax), %eax
	movl	%edx, 8(%esp)
	movl	%eax, 4(%esp)
	movl	8(%ebp), %eax
	movl	%eax, (%esp)
	call	_bg_AddTargetBits
	testl	%eax, %eax
	jne	L32
	.loc 1 404 0
	movl	$LC3, (%esp)
	call	_bg_err
	movl	$0, %eax
	jmp	L25
L32:
	.loc 1 407 0
	movl	$0, -24(%ebp)
	.loc 1 408 0
	movl	$0, -28(%ebp)
	.loc 1 409 0
	movl	$0, -32(%ebp)
	.loc 1 410 0
	movl	$0, -36(%ebp)
	.loc 1 414 0
	movl	12(%ebp), %eax
	movl	12(%eax), %edx
	movl	12(%ebp), %eax
	movl	4(%eax), %eax
	addl	%edx, %eax
	subl	$1, %eax
	movl	%eax, -16(%ebp)
	jmp	L34
L42:
	.loc 1 416 0
	movl	12(%ebp), %eax
	movl	8(%eax), %eax
	movl	%eax, -12(%ebp)
	jmp	L35
L41:
	.loc 1 418 0
	movl	-16(%ebp), %eax
	movl	%eax, 8(%esp)
	movl	-12(%ebp), %eax
	movl	%eax, 4(%esp)
	movl	8(%ebp), %eax
	movl	%eax, (%esp)
	call	_bg_GetBBXPixel
	testl	%eax, %eax
	jne	L36
	.loc 1 420 0
	cmpl	$0, -24(%ebp)
	je	L37
	.loc 1 422 0
	movl	-36(%ebp), %eax
	movl	-28(%ebp), %edx
	movl	%edx, _bd_list.3265(,%eax,4)
	.loc 1 423 0
	movl	$0, -24(%ebp)
	.loc 1 424 0
	addl	$1, -36(%ebp)
	.loc 1 425 0
	movl	$0, -28(%ebp)
L37:
	.loc 1 427 0
	addl	$1, -28(%ebp)
	jmp	L38
L36:
	.loc 1 431 0
	cmpl	$0, -24(%ebp)
	jne	L39
	.loc 1 433 0
	movl	-36(%ebp), %eax
	movl	-28(%ebp), %edx
	movl	%edx, _bd_list.3265(,%eax,4)
	.loc 1 434 0
	movl	$1, -24(%ebp)
	.loc 1 435 0
	addl	$1, -36(%ebp)
	.loc 1 436 0
	movl	$0, -28(%ebp)
L39:
	.loc 1 438 0
	addl	$1, -28(%ebp)
L38:
	.loc 1 441 0
	movl	-32(%ebp), %eax
	cmpl	-28(%ebp), %eax
	jge	L40
	.loc 1 442 0
	movl	-28(%ebp), %eax
	movl	%eax, -32(%ebp)
L40:
	.loc 1 416 0 discriminator 2
	addl	$1, -12(%ebp)
L35:
	.loc 1 416 0 is_stmt 0 discriminator 1
	movl	12(%ebp), %eax
	movl	8(%eax), %edx
	movl	12(%ebp), %eax
	movl	(%eax), %eax
	addl	%edx, %eax
	cmpl	-12(%ebp), %eax
	jg	L41
	.loc 1 414 0 is_stmt 1 discriminator 2
	subl	$1, -16(%ebp)
L34:
	.loc 1 414 0 is_stmt 0 discriminator 1
	movl	12(%ebp), %eax
	movl	12(%eax), %eax
	cmpl	-16(%ebp), %eax
	jle	L42
	.loc 1 447 0 is_stmt 1
	movl	-36(%ebp), %eax
	movl	-28(%ebp), %edx
	movl	%edx, _bd_list.3265(,%eax,4)
	.loc 1 448 0
	addl	$1, -36(%ebp)
	.loc 1 450 0
	movl	-36(%ebp), %eax
	andl	$1, %eax
	testl	%eax, %eax
	je	L43
	.loc 1 452 0
	cmpl	$0, -24(%ebp)
	je	L44
	.loc 1 452 0 is_stmt 0 discriminator 1
	movl	$LC4, 12(%esp)
	movl	$___func__.3272, 8(%esp)
	movl	$452, 4(%esp)
	movl	$LC5, (%esp)
	call	___assert_func
L44:
	.loc 1 453 0 is_stmt 1
	movl	-36(%ebp), %eax
	movl	$0, _bd_list.3265(,%eax,4)
	.loc 1 454 0
	addl	$1, -36(%ebp)
L43:
	.loc 1 464 0
	movl	$0, -20(%ebp)
	jmp	L45
L47:
	.loc 1 469 0
	movl	-20(%ebp), %eax
	addl	$1, %eax
	movl	_bd_list.3265(,%eax,4), %eax
	movl	%eax, %edx
	movl	-20(%ebp), %eax
	movl	_bd_list.3265(,%eax,4), %eax
	movl	%edx, 8(%esp)
	movl	%eax, 4(%esp)
	movl	8(%ebp), %eax
	movl	%eax, (%esp)
	call	_bg_prepare_01_rle
	testl	%eax, %eax
	jne	L46
	.loc 1 470 0
	movl	$0, %eax
	jmp	L25
L46:
	.loc 1 464 0 discriminator 2
	addl	$2, -20(%ebp)
L45:
	.loc 1 464 0 is_stmt 0 discriminator 1
	movl	-20(%ebp), %eax
	cmpl	-36(%ebp), %eax
	jl	L47
	.loc 1 477 0 is_stmt 1
	movl	$0, 8(%esp)
	movl	$1, 4(%esp)
	movl	8(%ebp), %eax
	movl	%eax, (%esp)
	call	_bg_AddTargetBits
	testl	%eax, %eax
	jne	L48
	.loc 1 478 0
	movl	$0, %eax
	jmp	L25
L48:
	.loc 1 480 0
	movl	8(%ebp), %eax
	movl	%eax, (%esp)
	call	_bg_FlushTargetBits
	testl	%eax, %eax
	jne	L49
	.loc 1 481 0
	movl	$0, %eax
	jmp	L25
L49:
	.loc 1 484 0
	movl	8(%ebp), %eax
	movl	52(%eax), %eax
	leal	1(%eax), %edx
	movl	8(%ebp), %eax
	movl	60(%eax), %eax
	movb	%al, (%edx)
	.loc 1 499 0
	movl	$1, %eax
L25:
	.loc 1 500 0
	addl	$52, %esp
	popl	%ebx
	.cfi_restore 3
	popl	%ebp
	.cfi_restore 5
	.cfi_def_cfa 4, 4
	ret
	.cfi_endproc
LFE16:
	.section .rdata,"dr"
	.align 4
LC6:
	.ascii "RLE Compress: Encoding %ld bits %u/%u\0"
	.text
	.globl	_bf_RLECompressAllGlyphsWithFieldSize
	.def	_bf_RLECompressAllGlyphsWithFieldSize;	.scl	2;	.type	32;	.endef
_bf_RLECompressAllGlyphsWithFieldSize:
LFB17:
	.loc 1 503 0
	.cfi_startproc
	pushl	%ebp
	.cfi_def_cfa_offset 8
	.cfi_offset 5, -8
	movl	%esp, %ebp
	.cfi_def_cfa_register 5
	subl	$72, %esp
	.loc 1 506 0
	movl	$0, -16(%ebp)
	.loc 1 509 0
	movl	$0, -12(%ebp)
	jmp	L51
L53:
	.loc 1 511 0
	movl	8(%ebp), %eax
	movl	4(%eax), %eax
	movl	-12(%ebp), %edx
	sall	$2, %edx
	addl	%edx, %eax
	movl	(%eax), %eax
	movl	%eax, -20(%ebp)
	.loc 1 512 0
	movl	-20(%ebp), %eax
	movl	8(%eax), %eax
	testl	%eax, %eax
	js	L52
	.loc 1 514 0
	movl	-20(%ebp), %eax
	movl	%eax, 8(%esp)
	leal	-36(%ebp), %eax
	movl	%eax, 4(%esp)
	movl	8(%ebp), %eax
	movl	%eax, (%esp)
	call	_bf_copy_bbx_and_update_shift
	.loc 1 570 0
	movl	16(%ebp), %edx
	movl	12(%ebp), %eax
	movl	20(%ebp), %ecx
	movl	%ecx, 16(%esp)
	movl	%edx, 12(%esp)
	movl	%eax, 8(%esp)
	leal	-36(%ebp), %eax
	movl	%eax, 4(%esp)
	movl	-20(%ebp), %eax
	movl	%eax, (%esp)
	call	_bg_rle_compress
	.loc 1 571 0
	movl	-20(%ebp), %eax
	movl	60(%eax), %eax
	leal	0(,%eax,8), %edx
	movl	-20(%ebp), %eax
	movl	64(%eax), %eax
	addl	%edx, %eax
	addl	%eax, -16(%ebp)
	.loc 1 572 0
	cmpl	$0, 20(%ebp)
	je	L52
	.loc 1 574 0
	movl	-20(%ebp), %eax
	movl	60(%eax), %eax
	leal	0(,%eax,8), %edx
	movl	-20(%ebp), %eax
	movl	64(%eax), %eax
	leal	(%edx,%eax), %ecx
	movl	-20(%ebp), %eax
	movl	80(%eax), %edx
	movl	-20(%ebp), %eax
	movl	4(%eax), %eax
	movl	%ecx, 16(%esp)
	movl	%edx, 12(%esp)
	movl	%eax, 8(%esp)
	movl	$LC6, 4(%esp)
	movl	8(%ebp), %eax
	movl	%eax, (%esp)
	call	_bf_Log
L52:
	.loc 1 509 0 discriminator 2
	addl	$1, -12(%ebp)
L51:
	.loc 1 509 0 is_stmt 0 discriminator 1
	movl	8(%ebp), %eax
	movl	8(%eax), %eax
	cmpl	-12(%ebp), %eax
	jg	L53
	.loc 1 579 0 is_stmt 1
	movl	-16(%ebp), %eax
	.loc 1 580 0
	leave
	.cfi_restore 5
	.cfi_def_cfa 4, 4
	ret
	.cfi_endproc
LFE17:
	.globl	_bf_RLE_get_glyph_data
	.def	_bf_RLE_get_glyph_data;	.scl	2;	.type	32;	.endef
_bf_RLE_get_glyph_data:
LFB18:
	.loc 1 584 0
	.cfi_startproc
	pushl	%ebp
	.cfi_def_cfa_offset 8
	.cfi_offset 5, -8
	movl	%esp, %ebp
	.cfi_def_cfa_register 5
	subl	$20, %esp
	movl	12(%ebp), %eax
	movb	%al, -20(%ebp)
	.loc 1 585 0
	movl	8(%ebp), %eax
	movl	1176(%eax), %eax
	movl	%eax, -4(%ebp)
	.loc 1 586 0
	addl	$21, -4(%ebp)
L60:
	.loc 1 589 0
	movl	-4(%ebp), %eax
	addl	$1, %eax
	movzbl	(%eax), %eax
	testb	%al, %al
	je	L62
	.loc 1 591 0
	movl	-4(%ebp), %eax
	movzbl	(%eax), %eax
	cmpb	-20(%ebp), %al
	jne	L58
	.loc 1 593 0
	movl	-4(%ebp), %edx
	movl	8(%ebp), %eax
	movl	1176(%eax), %eax
	subl	%eax, %edx
	movl	%edx, %eax
	subl	$21, %eax
	jmp	L59
L58:
	.loc 1 595 0
	movl	-4(%ebp), %eax
	addl	$1, %eax
	movzbl	(%eax), %eax
	movzbl	%al, %eax
	addl	%eax, -4(%ebp)
	.loc 1 589 0
	jmp	L60
L62:
	.loc 1 590 0
	nop
	.loc 1 597 0
	movl	$0, %eax
L59:
	.loc 1 598 0
	leave
	.cfi_restore 5
	.cfi_def_cfa 4, 4
	ret
	.cfi_endproc
LFE18:
	.section .rdata,"dr"
	.align 4
LC7:
	.ascii "RLE Compress: best zero bits %d, one bits %d, total bit size %lu\0"
	.align 4
LC8:
	.ascii "RLE Compress: Font code generation, selected glyphs=%d, total glyphs=%d\0"
	.align 4
LC9:
	.ascii "RLE Compress: Error, glyph too large, encoding=\0"
	.align 4
LC10:
	.ascii "RLE Compress: 'A' pos = %u, 'a' pos = %u\0"
LC11:
	.ascii "RLE Compress: Font size %d\0"
	.text
	.globl	_bf_RLECompressAllGlyphs
	.def	_bf_RLECompressAllGlyphs;	.scl	2;	.type	32;	.endef
_bf_RLECompressAllGlyphs:
LFB19:
	.loc 1 602 0
	.cfi_startproc
	pushl	%ebp
	.cfi_def_cfa_offset 8
	.cfi_offset 5, -8
	movl	%esp, %ebp
	.cfi_def_cfa_register 5
	pushl	%ebx
	subl	$116, %esp
	.cfi_offset 3, -12
	.loc 1 607 0
	movl	$0, -28(%ebp)
	movl	$0, -32(%ebp)
	.loc 1 608 0
	movl	$0, -60(%ebp)
	.loc 1 609 0
	movl	$-1, -36(%ebp)
	.loc 1 623 0
	movl	$0, -40(%ebp)
	.loc 1 624 0
	movl	$65, 4(%esp)
	movl	8(%ebp), %eax
	movl	%eax, (%esp)
	call	_bf_GetIndexByEncoding
	movl	%eax, -64(%ebp)
	.loc 1 625 0
	cmpl	$0, -64(%ebp)
	js	L64
	.loc 1 627 0
	movl	8(%ebp), %eax
	movl	4(%eax), %eax
	movl	-64(%ebp), %edx
	sall	$2, %edx
	addl	%edx, %eax
	movl	(%eax), %eax
	movl	24(%eax), %edx
	movl	8(%ebp), %eax
	movl	4(%eax), %eax
	movl	-64(%ebp), %ecx
	sall	$2, %ecx
	addl	%ecx, %eax
	movl	(%eax), %eax
	movl	32(%eax), %eax
	addl	%edx, %eax
	movl	%eax, -40(%ebp)
L64:
	.loc 1 630 0
	movl	$0, -44(%ebp)
	.loc 1 631 0
	movl	$49, 4(%esp)
	movl	8(%ebp), %eax
	movl	%eax, (%esp)
	call	_bf_GetIndexByEncoding
	movl	%eax, -68(%ebp)
	.loc 1 632 0
	cmpl	$0, -68(%ebp)
	js	L65
	.loc 1 634 0
	movl	8(%ebp), %eax
	movl	4(%eax), %eax
	movl	-68(%ebp), %edx
	sall	$2, %edx
	addl	%edx, %eax
	movl	(%eax), %eax
	movl	24(%eax), %edx
	movl	8(%ebp), %eax
	movl	4(%eax), %eax
	movl	-68(%ebp), %ecx
	sall	$2, %ecx
	addl	%ecx, %eax
	movl	(%eax), %eax
	movl	32(%eax), %eax
	addl	%edx, %eax
	movl	%eax, -44(%ebp)
L65:
	.loc 1 637 0
	movl	$0, -48(%ebp)
	.loc 1 638 0
	movl	$103, 4(%esp)
	movl	8(%ebp), %eax
	movl	%eax, (%esp)
	call	_bf_GetIndexByEncoding
	movl	%eax, -72(%ebp)
	.loc 1 639 0
	cmpl	$0, -72(%ebp)
	js	L66
	.loc 1 641 0
	movl	8(%ebp), %eax
	movl	4(%eax), %eax
	movl	-72(%ebp), %edx
	sall	$2, %edx
	addl	%edx, %eax
	movl	(%eax), %eax
	movl	32(%eax), %eax
	movl	%eax, -48(%ebp)
L66:
	.loc 1 645 0
	movl	$0, -52(%ebp)
	.loc 1 646 0
	movl	$40, 4(%esp)
	movl	8(%ebp), %eax
	movl	%eax, (%esp)
	call	_bf_GetIndexByEncoding
	movl	%eax, -76(%ebp)
	.loc 1 647 0
	cmpl	$0, -76(%ebp)
	js	L67
	.loc 1 649 0
	movl	8(%ebp), %eax
	movl	4(%eax), %eax
	movl	-76(%ebp), %edx
	sall	$2, %edx
	addl	%edx, %eax
	movl	(%eax), %eax
	movl	24(%eax), %edx
	movl	8(%ebp), %eax
	movl	4(%eax), %eax
	movl	-76(%ebp), %ecx
	sall	$2, %ecx
	addl	%ecx, %eax
	movl	(%eax), %eax
	movl	32(%eax), %eax
	addl	%edx, %eax
	movl	%eax, -52(%ebp)
	.loc 1 650 0
	movl	8(%ebp), %eax
	movl	4(%eax), %eax
	movl	-76(%ebp), %edx
	sall	$2, %edx
	addl	%edx, %eax
	movl	(%eax), %eax
	movl	32(%eax), %eax
	movl	%eax, -56(%ebp)
	jmp	L68
L67:
	.loc 1 654 0
	movl	-40(%ebp), %eax
	movl	%eax, -52(%ebp)
	.loc 1 655 0
	cmpl	$0, -52(%ebp)
	jne	L69
	.loc 1 656 0
	movl	-44(%ebp), %eax
	movl	%eax, -52(%ebp)
L69:
	.loc 1 658 0
	movl	-48(%ebp), %eax
	movl	%eax, -56(%ebp)
L68:
	.loc 1 662 0
	movl	$2, -20(%ebp)
	jmp	L70
L74:
	.loc 1 664 0
	movl	$2, -24(%ebp)
	jmp	L71
L73:
	.loc 1 666 0
	movl	$0, 12(%esp)
	movl	-24(%ebp), %eax
	movl	%eax, 8(%esp)
	movl	-20(%ebp), %eax
	movl	%eax, 4(%esp)
	movl	8(%ebp), %eax
	movl	%eax, (%esp)
	call	_bf_RLECompressAllGlyphsWithFieldSize
	movl	%eax, -60(%ebp)
	.loc 1 667 0
	movl	-36(%ebp), %eax
	cmpl	-60(%ebp), %eax
	jbe	L72
	.loc 1 669 0
	movl	-60(%ebp), %eax
	movl	%eax, -36(%ebp)
	.loc 1 670 0
	movl	-20(%ebp), %eax
	movl	%eax, -28(%ebp)
	.loc 1 671 0
	movl	-24(%ebp), %eax
	movl	%eax, -32(%ebp)
L72:
	.loc 1 664 0 discriminator 2
	addl	$1, -24(%ebp)
L71:
	.loc 1 664 0 is_stmt 0 discriminator 1
	cmpl	$6, -24(%ebp)
	jle	L73
	.loc 1 662 0 is_stmt 1 discriminator 2
	addl	$1, -20(%ebp)
L70:
	.loc 1 662 0 is_stmt 0 discriminator 1
	cmpl	$6, -20(%ebp)
	jle	L74
	.loc 1 676 0 is_stmt 1
	movl	-36(%ebp), %eax
	movl	%eax, 16(%esp)
	movl	-32(%ebp), %eax
	movl	%eax, 12(%esp)
	movl	-28(%ebp), %eax
	movl	%eax, 8(%esp)
	movl	$LC7, 4(%esp)
	movl	8(%ebp), %eax
	movl	%eax, (%esp)
	call	_bf_Log
	.loc 1 677 0
	movl	$0, 12(%esp)
	movl	-32(%ebp), %eax
	movl	%eax, 8(%esp)
	movl	-28(%ebp), %eax
	movl	%eax, 4(%esp)
	movl	8(%ebp), %eax
	movl	%eax, (%esp)
	call	_bf_RLECompressAllGlyphsWithFieldSize
	.loc 1 680 0
	movl	8(%ebp), %eax
	movl	%eax, (%esp)
	call	_bf_ClearTargetData
	.loc 1 693 0
	movl	8(%ebp), %eax
	movl	8(%eax), %edx
	movl	8(%ebp), %eax
	movl	1100(%eax), %eax
	movl	%edx, 12(%esp)
	movl	%eax, 8(%esp)
	movl	$LC8, 4(%esp)
	movl	8(%ebp), %eax
	movl	%eax, (%esp)
	call	_bf_Log
	.loc 1 696 0
	movl	8(%ebp), %eax
	movl	1100(%eax), %eax
	movzbl	%al, %eax
	movl	%eax, 4(%esp)
	movl	8(%ebp), %eax
	movl	%eax, (%esp)
	call	_bf_AddTargetData
	.loc 1 697 0
	movl	8(%ebp), %eax
	movl	1104(%eax), %eax
	movzbl	%al, %eax
	movl	%eax, 4(%esp)
	movl	8(%ebp), %eax
	movl	%eax, (%esp)
	call	_bf_AddTargetData
	.loc 1 698 0
	movl	-28(%ebp), %eax
	movzbl	%al, %eax
	movl	%eax, 4(%esp)
	movl	8(%ebp), %eax
	movl	%eax, (%esp)
	call	_bf_AddTargetData
	.loc 1 699 0
	movl	-32(%ebp), %eax
	movzbl	%al, %eax
	movl	%eax, 4(%esp)
	movl	8(%ebp), %eax
	movl	%eax, (%esp)
	call	_bf_AddTargetData
	.loc 1 702 0
	movl	8(%ebp), %eax
	movl	1164(%eax), %eax
	movzbl	%al, %eax
	movl	%eax, 4(%esp)
	movl	8(%ebp), %eax
	movl	%eax, (%esp)
	call	_bf_AddTargetData
	.loc 1 703 0
	movl	8(%ebp), %eax
	movl	1168(%eax), %eax
	movzbl	%al, %eax
	movl	%eax, 4(%esp)
	movl	8(%ebp), %eax
	movl	%eax, (%esp)
	call	_bf_AddTargetData
	.loc 1 704 0
	movl	8(%ebp), %eax
	movl	1156(%eax), %eax
	movzbl	%al, %eax
	movl	%eax, 4(%esp)
	movl	8(%ebp), %eax
	movl	%eax, (%esp)
	call	_bf_AddTargetData
	.loc 1 705 0
	movl	8(%ebp), %eax
	movl	1160(%eax), %eax
	movzbl	%al, %eax
	movl	%eax, 4(%esp)
	movl	8(%ebp), %eax
	movl	%eax, (%esp)
	call	_bf_AddTargetData
	.loc 1 706 0
	movl	8(%ebp), %eax
	movl	1172(%eax), %eax
	movzbl	%al, %eax
	movl	%eax, 4(%esp)
	movl	8(%ebp), %eax
	movl	%eax, (%esp)
	call	_bf_AddTargetData
	.loc 1 709 0
	movl	8(%ebp), %eax
	movl	1108(%eax), %eax
	movzbl	%al, %eax
	movl	%eax, 4(%esp)
	movl	8(%ebp), %eax
	movl	%eax, (%esp)
	call	_bf_AddTargetData
	.loc 1 710 0
	movl	8(%ebp), %eax
	movl	1112(%eax), %eax
	movzbl	%al, %eax
	movl	%eax, 4(%esp)
	movl	8(%ebp), %eax
	movl	%eax, (%esp)
	call	_bf_AddTargetData
	.loc 1 711 0
	movl	8(%ebp), %eax
	movl	1116(%eax), %eax
	movzbl	%al, %eax
	movl	%eax, 4(%esp)
	movl	8(%ebp), %eax
	movl	%eax, (%esp)
	call	_bf_AddTargetData
	.loc 1 712 0
	movl	8(%ebp), %eax
	movl	1120(%eax), %eax
	movzbl	%al, %eax
	movl	%eax, 4(%esp)
	movl	8(%ebp), %eax
	movl	%eax, (%esp)
	call	_bf_AddTargetData
	.loc 1 715 0
	cmpl	$0, -40(%ebp)
	jle	L75
	.loc 1 716 0
	movl	-40(%ebp), %eax
	movzbl	%al, %eax
	movl	%eax, 4(%esp)
	movl	8(%ebp), %eax
	movl	%eax, (%esp)
	call	_bf_AddTargetData
	jmp	L76
L75:
	.loc 1 718 0
	movl	-44(%ebp), %eax
	movzbl	%al, %eax
	movl	%eax, 4(%esp)
	movl	8(%ebp), %eax
	movl	%eax, (%esp)
	call	_bf_AddTargetData
L76:
	.loc 1 719 0
	movl	-48(%ebp), %eax
	movzbl	%al, %eax
	movl	%eax, 4(%esp)
	movl	8(%ebp), %eax
	movl	%eax, (%esp)
	call	_bf_AddTargetData
	.loc 1 722 0
	movl	-52(%ebp), %eax
	movzbl	%al, %eax
	movl	%eax, 4(%esp)
	movl	8(%ebp), %eax
	movl	%eax, (%esp)
	call	_bf_AddTargetData
	.loc 1 723 0
	movl	-56(%ebp), %eax
	movzbl	%al, %eax
	movl	%eax, 4(%esp)
	movl	8(%ebp), %eax
	movl	%eax, (%esp)
	call	_bf_AddTargetData
	.loc 1 726 0
	movl	$0, 4(%esp)
	movl	8(%ebp), %eax
	movl	%eax, (%esp)
	call	_bf_AddTargetData
	.loc 1 727 0
	movl	$0, 4(%esp)
	movl	8(%ebp), %eax
	movl	%eax, (%esp)
	call	_bf_AddTargetData
	.loc 1 730 0
	movl	$0, 4(%esp)
	movl	8(%ebp), %eax
	movl	%eax, (%esp)
	call	_bf_AddTargetData
	.loc 1 731 0
	movl	$0, 4(%esp)
	movl	8(%ebp), %eax
	movl	%eax, (%esp)
	call	_bf_AddTargetData
	.loc 1 733 0
	movl	$0, -12(%ebp)
	jmp	L77
L82:
	.loc 1 735 0
	movl	8(%ebp), %eax
	movl	4(%eax), %eax
	movl	-12(%ebp), %edx
	sall	$2, %edx
	addl	%edx, %eax
	movl	(%eax), %eax
	movl	%eax, -80(%ebp)
	.loc 1 736 0
	movl	-80(%ebp), %eax
	movl	8(%eax), %eax
	testl	%eax, %eax
	js	L78
	.loc 1 738 0
	movl	-80(%ebp), %eax
	movl	52(%eax), %eax
	testl	%eax, %eax
	je	L78
	.loc 1 741 0
	movl	-80(%ebp), %eax
	movl	60(%eax), %eax
	cmpl	$254, %eax
	jle	L79
	.loc 1 743 0
	movl	-80(%ebp), %eax
	movl	4(%eax), %eax
	movl	%eax, 8(%esp)
	movl	$LC9, 4(%esp)
	movl	8(%ebp), %eax
	movl	%eax, (%esp)
	call	_bf_Error
	.loc 1 744 0
	movl	$1, (%esp)
	call	_exit
L79:
	.loc 1 747 0
	movl	$0, -16(%ebp)
	jmp	L80
L81:
	.loc 1 749 0 discriminator 3
	movl	-80(%ebp), %eax
	movl	52(%eax), %edx
	movl	-16(%ebp), %eax
	addl	%edx, %eax
	movzbl	(%eax), %eax
	movzbl	%al, %eax
	movl	%eax, 4(%esp)
	movl	8(%ebp), %eax
	movl	%eax, (%esp)
	call	_bf_AddTargetData
	.loc 1 747 0 discriminator 3
	addl	$1, -16(%ebp)
L80:
	.loc 1 747 0 is_stmt 0 discriminator 1
	movl	-80(%ebp), %eax
	movl	60(%eax), %eax
	cmpl	-16(%ebp), %eax
	jg	L81
L78:
	.loc 1 733 0 is_stmt 1 discriminator 2
	addl	$1, -12(%ebp)
L77:
	.loc 1 733 0 is_stmt 0 discriminator 1
	movl	8(%ebp), %eax
	movl	8(%eax), %eax
	cmpl	-12(%ebp), %eax
	jg	L82
	.loc 1 755 0 is_stmt 1
	movl	$0, 4(%esp)
	movl	8(%ebp), %eax
	movl	%eax, (%esp)
	call	_bf_AddTargetData
	.loc 1 756 0
	movl	$0, 4(%esp)
	movl	8(%ebp), %eax
	movl	%eax, (%esp)
	call	_bf_AddTargetData
	.loc 1 758 0
	movl	$65, 4(%esp)
	movl	8(%ebp), %eax
	movl	%eax, (%esp)
	call	_bf_RLE_get_glyph_data
	movl	%eax, -84(%ebp)
	.loc 1 759 0
	movl	8(%ebp), %eax
	movl	1176(%eax), %eax
	addl	$17, %eax
	movl	-84(%ebp), %edx
	shrl	$8, %edx
	movb	%dl, (%eax)
	.loc 1 760 0
	movl	8(%ebp), %eax
	movl	1176(%eax), %eax
	addl	$18, %eax
	movl	-84(%ebp), %edx
	movb	%dl, (%eax)
	.loc 1 762 0
	movl	$97, 4(%esp)
	movl	8(%ebp), %eax
	movl	%eax, (%esp)
	call	_bf_RLE_get_glyph_data
	movl	%eax, -84(%ebp)
	.loc 1 763 0
	movl	8(%ebp), %eax
	movl	1176(%eax), %eax
	addl	$19, %eax
	movl	-84(%ebp), %edx
	shrl	$8, %edx
	movb	%dl, (%eax)
	.loc 1 764 0
	movl	8(%ebp), %eax
	movl	1176(%eax), %eax
	addl	$20, %eax
	movl	-84(%ebp), %edx
	movb	%dl, (%eax)
	.loc 1 766 0
	movl	$97, 4(%esp)
	movl	8(%ebp), %eax
	movl	%eax, (%esp)
	call	_bf_RLE_get_glyph_data
	movl	%eax, %ebx
	movl	$65, 4(%esp)
	movl	8(%ebp), %eax
	movl	%eax, (%esp)
	call	_bf_RLE_get_glyph_data
	movl	%ebx, 12(%esp)
	movl	%eax, 8(%esp)
	movl	$LC10, 4(%esp)
	movl	8(%ebp), %eax
	movl	%eax, (%esp)
	call	_bf_Log
	.loc 1 768 0
	movl	8(%ebp), %eax
	movl	1184(%eax), %eax
	movl	%eax, 8(%esp)
	movl	$LC11, 4(%esp)
	movl	8(%ebp), %eax
	movl	%eax, (%esp)
	call	_bf_Log
	.loc 1 770 0
	nop
	addl	$116, %esp
	popl	%ebx
	.cfi_restore 3
	popl	%ebp
	.cfi_restore 5
	.cfi_def_cfa 4, 4
	ret
	.cfi_endproc
LFE19:
.lcomm _bd_list.3265,8192,32
	.section .rdata,"dr"
	.align 4
___func__.3272:
	.ascii "bg_rle_compress\0"
	.text
Letext0:
	.file 2 "/usr/include/machine/_default_types.h"
	.file 3 "/usr/lib/gcc/i686-pc-msys/6.4.0/include/stddef.h"
	.file 4 "/usr/include/sys/lock.h"
	.file 5 "/usr/include/sys/_types.h"
	.file 6 "/usr/include/sys/reent.h"
	.file 7 "/usr/include/sys/_stdint.h"
	.file 8 "/usr/include/stdio.h"
	.file 9 "/usr/include/stdlib.h"
	.file 10 "bdf_glyph.h"
	.file 11 "bdf_font.h"