	.file	"bdf_tga.c"
	.text
Ltext0:
.lcomm _tga_width,2,2
.lcomm _tga_height,2,2
.lcomm _tga_data,4,4
.lcomm _tga_font,4,4
.lcomm _glyph_cnt,4,4
.lcomm _bits_per_0,4,4
.lcomm _bits_per_1,4,4
.lcomm _bits_per_char_width,4,4
.lcomm _bits_per_char_height,4,4
.lcomm _bits_per_char_x,4,4
.lcomm _bits_per_char_y,4,4
.lcomm _bits_per_delta_x,4,4
.lcomm _char_width,4,4
.lcomm _char_height,4,4
.lcomm _char_descent,4,4
	.globl	_tga_get_char_width
	.def	_tga_get_char_width;	.scl	2;	.type	32;	.endef
_tga_get_char_width:
LFB12:
	.file 1 "bdf_tga.c"
	.loc 1 63 0
	.cfi_startproc
	pushl	%ebp
	.cfi_def_cfa_offset 8
	.cfi_offset 5, -8
	movl	%esp, %ebp
	.cfi_def_cfa_register 5
	.loc 1 64 0
	movl	_char_width, %eax
	.loc 1 65 0
	popl	%ebp
	.cfi_restore 5
	.cfi_def_cfa 4, 4
	ret
	.cfi_endproc
LFE12:
	.globl	_tga_get_char_height
	.def	_tga_get_char_height;	.scl	2;	.type	32;	.endef
_tga_get_char_height:
LFB13:
	.loc 1 68 0
	.cfi_startproc
	pushl	%ebp
	.cfi_def_cfa_offset 8
	.cfi_offset 5, -8
	movl	%esp, %ebp
	.cfi_def_cfa_register 5
	.loc 1 69 0
	movl	_char_height, %eax
	.loc 1 70 0
	popl	%ebp
	.cfi_restore 5
	.cfi_def_cfa 4, 4
	ret
	.cfi_endproc
LFE13:
	.globl	_tga_init
	.def	_tga_init;	.scl	2;	.type	32;	.endef
_tga_init:
LFB14:
	.loc 1 73 0
	.cfi_startproc
	pushl	%ebp
	.cfi_def_cfa_offset 8
	.cfi_offset 5, -8
	movl	%esp, %ebp
	.cfi_def_cfa_register 5
	subl	$40, %esp
	movl	8(%ebp), %edx
	movl	12(%ebp), %eax
	movw	%dx, -12(%ebp)
	movw	%ax, -16(%ebp)
	.loc 1 74 0
	movw	$0, _tga_width
	.loc 1 75 0
	movw	$0, _tga_height
	.loc 1 76 0
	movl	_tga_data, %eax
	testl	%eax, %eax
	je	L6
	.loc 1 77 0
	movl	_tga_data, %eax
	movl	%eax, (%esp)
	call	_free
L6:
	.loc 1 78 0
	movzwl	-12(%ebp), %edx
	movzwl	-16(%ebp), %eax
	imull	%eax, %edx
	movl	%edx, %eax
	addl	%eax, %eax
	addl	%edx, %eax
	movl	%eax, (%esp)
	call	_malloc
	movl	%eax, _tga_data
	.loc 1 79 0
	movl	_tga_data, %eax
	testl	%eax, %eax
	jne	L7
	.loc 1 80 0
	movl	$0, %eax
	jmp	L8
L7:
	.loc 1 81 0
	movzwl	-12(%ebp), %eax
	movw	%ax, _tga_width
	.loc 1 82 0
	movzwl	-16(%ebp), %eax
	movw	%ax, _tga_height
	.loc 1 83 0
	movzwl	_tga_width, %eax
	movzwl	%ax, %edx
	movzwl	_tga_height, %eax
	movzwl	%ax, %eax
	imull	%eax, %edx
	movl	%edx, %eax
	addl	%eax, %eax
	addl	%edx, %eax
	movl	%eax, %edx
	movl	_tga_data, %eax
	movl	%edx, 8(%esp)
	movl	$255, 4(%esp)
	movl	%eax, (%esp)
	call	_memset
	.loc 1 84 0
	movl	$1, %eax
L8:
	.loc 1 85 0
	leave
	.cfi_restore 5
	.cfi_def_cfa 4, 4
	ret
	.cfi_endproc
LFE14:
	.globl	_tga_set_pixel
	.def	_tga_set_pixel;	.scl	2;	.type	32;	.endef
_tga_set_pixel:
LFB15:
	.loc 1 88 0
	.cfi_startproc
	pushl	%ebp
	.cfi_def_cfa_offset 8
	.cfi_offset 5, -8
	movl	%esp, %ebp
	.cfi_def_cfa_register 5
	pushl	%esi
	pushl	%ebx
	subl	$36, %esp
	.cfi_offset 6, -12
	.cfi_offset 3, -16
	movl	8(%ebp), %esi
	movl	12(%ebp), %ebx
	movl	16(%ebp), %ecx
	movl	20(%ebp), %edx
	movl	24(%ebp), %eax
	movw	%si, -28(%ebp)
	movw	%bx, -32(%ebp)
	movb	%cl, -36(%ebp)
	movb	%dl, -40(%ebp)
	movb	%al, -44(%ebp)
	.loc 1 90 0
	movzwl	_tga_height, %eax
	cmpw	%ax, -32(%ebp)
	jnb	L13
	.loc 1 92 0
	movzwl	_tga_width, %eax
	cmpw	%ax, -28(%ebp)
	jnb	L14
	.loc 1 94 0
	movl	_tga_data, %ecx
	movzwl	_tga_height, %eax
	movzwl	%ax, %edx
	movzwl	-32(%ebp), %eax
	subl	%eax, %edx
	movl	%edx, %eax
	subl	$1, %eax
	movl	%eax, %edx
	movzwl	_tga_width, %eax
	movzwl	%ax, %eax
	imull	%eax, %edx
	movzwl	-28(%ebp), %eax
	addl	%eax, %edx
	movl	%edx, %eax
	addl	%eax, %eax
	addl	%edx, %eax
	addl	%ecx, %eax
	movl	%eax, -12(%ebp)
	.loc 1 95 0
	movl	-12(%ebp), %eax
	leal	1(%eax), %edx
	movl	%edx, -12(%ebp)
	movzbl	-44(%ebp), %edx
	movb	%dl, (%eax)
	.loc 1 96 0
	movl	-12(%ebp), %eax
	leal	1(%eax), %edx
	movl	%edx, -12(%ebp)
	movzbl	-40(%ebp), %edx
	movb	%dl, (%eax)
	.loc 1 97 0
	movl	-12(%ebp), %eax
	leal	1(%eax), %edx
	movl	%edx, -12(%ebp)
	movzbl	-36(%ebp), %edx
	movb	%dl, (%eax)
	jmp	L9
L13:
	.loc 1 91 0
	nop
	jmp	L9
L14:
	.loc 1 93 0
	nop
L9:
	.loc 1 98 0
	addl	$36, %esp
	popl	%ebx
	.cfi_restore 3
	popl	%esi
	.cfi_restore 6
	popl	%ebp
	.cfi_restore 5
	.cfi_def_cfa 4, 4
	ret
	.cfi_endproc
LFE15:
	.globl	_tga_write_byte
	.def	_tga_write_byte;	.scl	2;	.type	32;	.endef
_tga_write_byte:
LFB16:
	.loc 1 101 0
	.cfi_startproc
	pushl	%ebp
	.cfi_def_cfa_offset 8
	.cfi_offset 5, -8
	movl	%esp, %ebp
	.cfi_def_cfa_register 5
	subl	$40, %esp
	movl	12(%ebp), %eax
	movb	%al, -12(%ebp)
	.loc 1 102 0
	movzbl	-12(%ebp), %eax
	movl	8(%ebp), %edx
	movl	%edx, 4(%esp)
	movl	%eax, (%esp)
	call	_fputc
	.loc 1 103 0
	nop
	leave
	.cfi_restore 5
	.cfi_def_cfa 4, 4
	ret
	.cfi_endproc
LFE16:
	.globl	_tga_write_word
	.def	_tga_write_word;	.scl	2;	.type	32;	.endef
_tga_write_word:
LFB17:
	.loc 1 106 0
	.cfi_startproc
	pushl	%ebp
	.cfi_def_cfa_offset 8
	.cfi_offset 5, -8
	movl	%esp, %ebp
	.cfi_def_cfa_register 5
	subl	$40, %esp
	movl	12(%ebp), %eax
	movw	%ax, -12(%ebp)
	.loc 1 107 0
	movzwl	-12(%ebp), %eax
	movzbl	%al, %eax
	movl	%eax, 4(%esp)
	movl	8(%ebp), %eax
	movl	%eax, (%esp)
	call	_tga_write_byte
	.loc 1 108 0
	movzwl	-12(%ebp), %eax
	shrw	$8, %ax
	movzbl	%al, %eax
	movl	%eax, 4(%esp)
	movl	8(%ebp), %eax
	movl	%eax, (%esp)
	call	_tga_write_byte
	.loc 1 109 0
	nop
	leave
	.cfi_restore 5
	.cfi_def_cfa 4, 4
	ret
	.cfi_endproc
LFE17:
	.section .rdata,"dr"
LC0:
	.ascii "wb\0"
LC1:
	.ascii "TRUEVISION-XFILE.\0"
	.text
	.globl	_tga_save
	.def	_tga_save;	.scl	2;	.type	32;	.endef
_tga_save:
LFB18:
	.loc 1 112 0
	.cfi_startproc
	pushl	%ebp
	.cfi_def_cfa_offset 8
	.cfi_offset 5, -8
	movl	%esp, %ebp
	.cfi_def_cfa_register 5
	subl	$40, %esp
	.loc 1 114 0
	movl	$LC0, 4(%esp)
	movl	8(%ebp), %eax
	movl	%eax, (%esp)
	call	_fopen
	movl	%eax, -12(%ebp)
	.loc 1 115 0
	cmpl	$0, -12(%ebp)
	je	L19
	.loc 1 117 0
	movl	$0, 4(%esp)
	movl	-12(%ebp), %eax
	movl	%eax, (%esp)
	call	_tga_write_byte
	.loc 1 118 0
	movl	$0, 4(%esp)
	movl	-12(%ebp), %eax
	movl	%eax, (%esp)
	call	_tga_write_byte
	.loc 1 119 0
	movl	$2, 4(%esp)
	movl	-12(%ebp), %eax
	movl	%eax, (%esp)
	call	_tga_write_byte
	.loc 1 120 0
	movl	$0, 4(%esp)
	movl	-12(%ebp), %eax
	movl	%eax, (%esp)
	call	_tga_write_word
	.loc 1 121 0
	movl	$0, 4(%esp)
	movl	-12(%ebp), %eax
	movl	%eax, (%esp)
	call	_tga_write_word
	.loc 1 122 0
	movl	$0, 4(%esp)
	movl	-12(%ebp), %eax
	movl	%eax, (%esp)
	call	_tga_write_byte
	.loc 1 123 0
	movl	$0, 4(%esp)
	movl	-12(%ebp), %eax
	movl	%eax, (%esp)
	call	_tga_write_word
	.loc 1 124 0
	movl	$0, 4(%esp)
	movl	-12(%ebp), %eax
	movl	%eax, (%esp)
	call	_tga_write_word
	.loc 1 125 0
	movzwl	_tga_width, %eax
	movzwl	%ax, %eax
	movl	%eax, 4(%esp)
	movl	-12(%ebp), %eax
	movl	%eax, (%esp)
	call	_tga_write_word
	.loc 1 126 0
	movzwl	_tga_height, %eax
	movzwl	%ax, %eax
	movl	%eax, 4(%esp)
	movl	-12(%ebp), %eax
	movl	%eax, (%esp)
	call	_tga_write_word
	.loc 1 127 0
	movl	$24, 4(%esp)
	movl	-12(%ebp), %eax
	movl	%eax, (%esp)
	call	_tga_write_byte
	.loc 1 128 0
	movl	$0, 4(%esp)
	movl	-12(%ebp), %eax
	movl	%eax, (%esp)
	call	_tga_write_byte
	.loc 1 129 0
	movzwl	_tga_width, %eax
	movzwl	%ax, %edx
	movzwl	_tga_height, %eax
	movzwl	%ax, %eax
	imull	%eax, %edx
	movl	%edx, %eax
	addl	%eax, %eax
	addl	%edx, %eax
	movl	%eax, %ecx
	movl	_tga_data, %eax
	movl	-12(%ebp), %edx
	movl	%edx, 12(%esp)
	movl	$1, 8(%esp)
	movl	%ecx, 4(%esp)
	movl	%eax, (%esp)
	call	_fwrite
	.loc 1 130 0
	movl	$0, 4(%esp)
	movl	-12(%ebp), %eax
	movl	%eax, (%esp)
	call	_tga_write_word
	.loc 1 131 0
	movl	$0, 4(%esp)
	movl	-12(%ebp), %eax
	movl	%eax, (%esp)
	call	_tga_write_word
	.loc 1 132 0
	movl	$0, 4(%esp)
	movl	-12(%ebp), %eax
	movl	%eax, (%esp)
	call	_tga_write_word
	.loc 1 133 0
	movl	$0, 4(%esp)
	movl	-12(%ebp), %eax
	movl	%eax, (%esp)
	call	_tga_write_word
	.loc 1 134 0
	movl	-12(%ebp), %eax
	movl	%eax, 12(%esp)
	movl	$1, 8(%esp)
	movl	$18, 4(%esp)
	movl	$LC1, (%esp)
	call	_fwrite
	.loc 1 135 0
	movl	-12(%ebp), %eax
	movl	%eax, (%esp)
	call	_fclose
L19:
	.loc 1 137 0
	nop
	leave
	.cfi_restore 5
	.cfi_def_cfa 4, 4
	ret
	.cfi_endproc
LFE18:
	.globl	_tga_set_font
	.def	_tga_set_font;	.scl	2;	.type	32;	.endef
_tga_set_font:
LFB19:
	.loc 1 173 0
	.cfi_startproc
	pushl	%ebp
	.cfi_def_cfa_offset 8
	.cfi_offset 5, -8
	movl	%esp, %ebp
	.cfi_def_cfa_register 5
	.loc 1 174 0
	movl	8(%ebp), %eax
	leal	1(%eax), %edx
	movl	%edx, 8(%ebp)
	movzbl	(%eax), %eax
	movzbl	%al, %eax
	movl	%eax, _glyph_cnt
	.loc 1 175 0
	addl	$1, 8(%ebp)
	.loc 1 176 0
	movl	8(%ebp), %eax
	leal	1(%eax), %edx
	movl	%edx, 8(%ebp)
	movzbl	(%eax), %eax
	movzbl	%al, %eax
	movl	%eax, _bits_per_0
	.loc 1 177 0
	movl	8(%ebp), %eax
	leal	1(%eax), %edx
	movl	%edx, 8(%ebp)
	movzbl	(%eax), %eax
	movzbl	%al, %eax
	movl	%eax, _bits_per_1
	.loc 1 178 0
	movl	8(%ebp), %eax
	leal	1(%eax), %edx
	movl	%edx, 8(%ebp)
	movzbl	(%eax), %eax
	movzbl	%al, %eax
	movl	%eax, _bits_per_char_width
	.loc 1 179 0
	movl	8(%ebp), %eax
	leal	1(%eax), %edx
	movl	%edx, 8(%ebp)
	movzbl	(%eax), %eax
	movzbl	%al, %eax
	movl	%eax, _bits_per_char_height
	.loc 1 180 0
	movl	8(%ebp), %eax
	leal	1(%eax), %edx
	movl	%edx, 8(%ebp)
	movzbl	(%eax), %eax
	movzbl	%al, %eax
	movl	%eax, _bits_per_char_x
	.loc 1 181 0
	movl	8(%ebp), %eax
	leal	1(%eax), %edx
	movl	%edx, 8(%ebp)
	movzbl	(%eax), %eax
	movzbl	%al, %eax
	movl	%eax, _bits_per_char_y
	.loc 1 182 0
	movl	8(%ebp), %eax
	leal	1(%eax), %edx
	movl	%edx, 8(%ebp)
	movzbl	(%eax), %eax
	movzbl	%al, %eax
	movl	%eax, _bits_per_delta_x
	.loc 1 183 0
	movl	8(%ebp), %eax
	leal	1(%eax), %edx
	movl	%edx, 8(%ebp)
	movzbl	(%eax), %eax
	movzbl	%al, %eax
	movl	%eax, _char_width
	.loc 1 184 0
	movl	8(%ebp), %eax
	leal	1(%eax), %edx
	movl	%edx, 8(%ebp)
	movzbl	(%eax), %eax
	movzbl	%al, %eax
	movl	%eax, _char_height
	.loc 1 185 0
	addl	$1, 8(%ebp)
	.loc 1 186 0
	movl	8(%ebp), %eax
	movzbl	(%eax), %eax
	movsbl	%al, %eax
	movl	%eax, _char_descent
	.loc 1 187 0
	addl	$1, 8(%ebp)
	.loc 1 189 0
	addl	$1, 8(%ebp)
	.loc 1 190 0
	addl	$1, 8(%ebp)
	.loc 1 191 0
	addl	$1, 8(%ebp)
	.loc 1 192 0
	addl	$1, 8(%ebp)
	.loc 1 194 0
	addl	$1, 8(%ebp)
	.loc 1 195 0
	addl	$1, 8(%ebp)
	.loc 1 196 0
	addl	$1, 8(%ebp)
	.loc 1 197 0
	addl	$1, 8(%ebp)
	.loc 1 199 0
	movl	8(%ebp), %eax
	movl	%eax, _tga_font
	.loc 1 201 0
	nop
	popl	%ebp
	.cfi_restore 5
	.cfi_def_cfa 4, 4
	ret
	.cfi_endproc
LFE19:
	.globl	_tga_get_glyph_data
	.def	_tga_get_glyph_data;	.scl	2;	.type	32;	.endef
_tga_get_glyph_data:
LFB20:
	.loc 1 221 0
	.cfi_startproc
	pushl	%ebp
	.cfi_def_cfa_offset 8
	.cfi_offset 5, -8
	movl	%esp, %ebp
	.cfi_def_cfa_register 5
	subl	$20, %esp
	movl	8(%ebp), %eax
	movb	%al, -20(%ebp)
	.loc 1 222 0
	movl	_tga_font, %eax
	movl	%eax, -4(%ebp)
L26:
	.loc 1 225 0
	movl	-4(%ebp), %eax
	addl	$1, %eax
	movzbl	(%eax), %eax
	testb	%al, %al
	je	L28
	.loc 1 227 0
	movl	-4(%ebp), %eax
	movzbl	(%eax), %eax
	cmpb	-20(%ebp), %al
	jne	L24
	.loc 1 229 0
	movl	-4(%ebp), %eax
	jmp	L25
L24:
	.loc 1 231 0
	movl	-4(%ebp), %eax
	addl	$1, %eax
	movzbl	(%eax), %eax
	movzbl	%al, %eax
	addl	%eax, -4(%ebp)
	.loc 1 225 0
	jmp	L26
L28:
	.loc 1 226 0
	nop
	.loc 1 233 0
	movl	$0, %eax
L25:
	.loc 1 234 0
	leave
	.cfi_restore 5
	.cfi_def_cfa 4, 4
	ret
	.cfi_endproc
LFE20:
	.globl	_tga_fd_inc
	.def	_tga_fd_inc;	.scl	2;	.type	32;	.endef
_tga_fd_inc:
LFB21:
	.loc 1 265 0
	.cfi_startproc
	pushl	%ebp
	.cfi_def_cfa_offset 8
	.cfi_offset 5, -8
	movl	%esp, %ebp
	.cfi_def_cfa_register 5
	subl	$16, %esp
	.loc 1 266 0
	movl	8(%ebp), %eax
	movl	12(%eax), %eax
	movl	%eax, -4(%ebp)
	.loc 1 267 0
	addl	$1, -4(%ebp)
	.loc 1 268 0
	movl	8(%ebp), %eax
	movl	20(%eax), %eax
	cmpl	-4(%ebp), %eax
	jne	L30
	.loc 1 270 0
	movl	$0, -4(%ebp)
	.loc 1 271 0
	movl	8(%ebp), %eax
	movl	16(%eax), %eax
	leal	1(%eax), %edx
	movl	8(%ebp), %eax
	movl	%edx, 16(%eax)
L30:
	.loc 1 273 0
	movl	8(%ebp), %eax
	movl	-4(%ebp), %edx
	movl	%edx, 12(%eax)
	.loc 1 274 0
	nop
	leave
	.cfi_restore 5
	.cfi_def_cfa 4, 4
	ret
	.cfi_endproc
LFE21:
	.globl	_tga_fd_get_unsigned_bits
	.def	_tga_fd_get_unsigned_bits;	.scl	2;	.type	32;	.endef
_tga_fd_get_unsigned_bits:
LFB22:
	.loc 1 278 0
	.cfi_startproc
	pushl	%ebp
	.cfi_def_cfa_offset 8
	.cfi_offset 5, -8
	movl	%esp, %ebp
	.cfi_def_cfa_register 5
	subl	$16, %esp
	.loc 1 280 0
	movl	8(%ebp), %eax
	movl	32(%eax), %eax
	movl	%eax, -8(%ebp)
	.loc 1 282 0
	movl	8(%ebp), %eax
	movl	28(%eax), %eax
	movzbl	(%eax), %eax
	movzbl	%al, %eax
	movl	%eax, -4(%ebp)
	.loc 1 284 0
	movl	-8(%ebp), %eax
	movl	%eax, %ecx
	shrl	%cl, -4(%ebp)
	.loc 1 285 0
	movl	-8(%ebp), %edx
	movl	12(%ebp), %eax
	addl	%edx, %eax
	cmpl	$7, %eax
	jbe	L32
	.loc 1 287 0
	movl	8(%ebp), %eax
	movl	28(%eax), %eax
	leal	1(%eax), %edx
	movl	8(%ebp), %eax
	movl	%edx, 28(%eax)
	.loc 1 288 0
	movl	8(%ebp), %eax
	movl	28(%eax), %eax
	movzbl	(%eax), %eax
	movzbl	%al, %edx
	movl	$8, %eax
	subl	-8(%ebp), %eax
	movl	%eax, %ecx
	sall	%cl, %edx
	movl	%edx, %eax
	orl	%eax, -4(%ebp)
	.loc 1 289 0
	subl	$8, -8(%ebp)
L32:
	.loc 1 291 0
	movl	12(%ebp), %eax
	movl	$1, %edx
	movl	%eax, %ecx
	sall	%cl, %edx
	movl	%edx, %eax
	subl	$1, %eax
	andl	%eax, -4(%ebp)
	.loc 1 292 0
	movl	12(%ebp), %eax
	addl	%eax, -8(%ebp)
	.loc 1 294 0
	movl	8(%ebp), %eax
	movl	-8(%ebp), %edx
	movl	%edx, 32(%eax)
	.loc 1 295 0
	movl	-4(%ebp), %eax
	.loc 1 296 0
	leave
	.cfi_restore 5
	.cfi_def_cfa 4, 4
	ret
	.cfi_endproc
LFE22:
	.globl	_tga_fd_get_signed_bits
	.def	_tga_fd_get_signed_bits;	.scl	2;	.type	32;	.endef
_tga_fd_get_signed_bits:
LFB23:
	.loc 1 313 0
	.cfi_startproc
	pushl	%ebp
	.cfi_def_cfa_offset 8
	.cfi_offset 5, -8
	movl	%esp, %ebp
	.cfi_def_cfa_register 5
	pushl	%ebx
	subl	$8, %esp
	.cfi_offset 3, -12
	.loc 1 314 0
	movl	12(%ebp), %eax
	movl	%eax, 4(%esp)
	movl	8(%ebp), %eax
	movl	%eax, (%esp)
	call	_tga_fd_get_unsigned_bits
	movl	%eax, %edx
	movl	12(%ebp), %eax
	movl	$1, %ebx
	movl	%eax, %ecx
	sall	%cl, %ebx
	movl	%ebx, %eax
	sarl	%eax
	subl	%eax, %edx
	movl	%edx, %eax
	.loc 1 315 0
	addl	$8, %esp
	popl	%ebx
	.cfi_restore 3
	popl	%ebp
	.cfi_restore 5
	.cfi_def_cfa 4, 4
	ret
	.cfi_endproc
LFE23:
	.globl	_tga_fd_draw_fg_pixel
	.def	_tga_fd_draw_fg_pixel;	.scl	2;	.type	32;	.endef
_tga_fd_draw_fg_pixel:
LFB24:
	.loc 1 319 0
	.cfi_startproc
	pushl	%ebp
	.cfi_def_cfa_offset 8
	.cfi_offset 5, -8
	movl	%esp, %ebp
	.cfi_def_cfa_register 5
	subl	$20, %esp
	.loc 1 322 0
	jmp	L37
L38:
	.loc 1 324 0
	subl	$1, 12(%ebp)
	.loc 1 325 0
	movl	8(%ebp), %eax
	movl	4(%eax), %eax
	movl	%eax, %edx
	movl	8(%ebp), %eax
	movl	16(%eax), %eax
	addl	%edx, %eax
	movzwl	%ax, %edx
	movl	8(%ebp), %eax
	movl	(%eax), %eax
	movl	%eax, %ecx
	movl	8(%ebp), %eax
	movl	12(%eax), %eax
	addl	%eax, %ecx
	movl	12(%ebp), %eax
	addl	%ecx, %eax
	movzwl	%ax, %eax
	movl	$0, 16(%esp)
	movl	$0, 12(%esp)
	movl	$0, 8(%esp)
	movl	%edx, 4(%esp)
	movl	%eax, (%esp)
	call	_tga_set_pixel
L37:
	.loc 1 322 0
	cmpl	$0, 12(%ebp)
	jne	L38
	.loc 1 327 0
	nop
	leave
	.cfi_restore 5
	.cfi_def_cfa 4, 4
	ret
	.cfi_endproc
LFE24:
	.globl	_tga_fd_draw_bg_pixel
	.def	_tga_fd_draw_bg_pixel;	.scl	2;	.type	32;	.endef
_tga_fd_draw_bg_pixel:
LFB25:
	.loc 1 330 0
	.cfi_startproc
	pushl	%ebp
	.cfi_def_cfa_offset 8
	.cfi_offset 5, -8
	movl	%esp, %ebp
	.cfi_def_cfa_register 5
	subl	$20, %esp
	.loc 1 333 0
	jmp	L40
L41:
	.loc 1 335 0
	subl	$1, 12(%ebp)
	.loc 1 336 0
	movl	8(%ebp), %eax
	movl	8(%eax), %eax
	testl	%eax, %eax
	jne	L40
	.loc 1 337 0
	movl	8(%ebp), %eax
	movl	4(%eax), %eax
	movl	%eax, %edx
	movl	8(%ebp), %eax
	movl	16(%eax), %eax
	addl	%edx, %eax
	movzwl	%ax, %edx
	movl	8(%ebp), %eax
	movl	(%eax), %eax
	movl	%eax, %ecx
	movl	8(%ebp), %eax
	movl	12(%eax), %eax
	addl	%eax, %ecx
	movl	12(%ebp), %eax
	addl	%ecx, %eax
	movzwl	%ax, %eax
	movl	$232, 16(%esp)
	movl	$232, 12(%esp)
	movl	$232, 8(%esp)
	movl	%edx, 4(%esp)
	movl	%eax, (%esp)
	call	_tga_set_pixel
L40:
	.loc 1 333 0
	cmpl	$0, 12(%ebp)
	jne	L41
	.loc 1 339 0
	nop
	leave
	.cfi_restore 5
	.cfi_def_cfa 4, 4
	ret
	.cfi_endproc
LFE25:
	.globl	_tga_draw_hline
	.def	_tga_draw_hline;	.scl	2;	.type	32;	.endef
_tga_draw_hline:
LFB26:
	.loc 1 342 0
	.cfi_startproc
	pushl	%ebp
	.cfi_def_cfa_offset 8
	.cfi_offset 5, -8
	movl	%esp, %ebp
	.cfi_def_cfa_register 5
	subl	$20, %esp
	.loc 1 343 0
	jmp	L43
L45:
	.loc 1 345 0
	subl	$1, 16(%ebp)
	.loc 1 346 0
	cmpl	$0, 20(%ebp)
	jne	L44
	.loc 1 347 0
	movl	12(%ebp), %eax
	movzwl	%ax, %edx
	movl	8(%ebp), %eax
	movl	%eax, %ecx
	movl	16(%ebp), %eax
	addl	%ecx, %eax
	movzwl	%ax, %eax
	movl	$232, 16(%esp)
	movl	$232, 12(%esp)
	movl	$232, 8(%esp)
	movl	%edx, 4(%esp)
	movl	%eax, (%esp)
	call	_tga_set_pixel
	jmp	L43
L44:
	.loc 1 349 0
	movl	12(%ebp), %eax
	movzwl	%ax, %edx
	movl	8(%ebp), %eax
	movl	%eax, %ecx
	movl	16(%ebp), %eax
	addl	%ecx, %eax
	movzwl	%ax, %eax
	movl	$0, 16(%esp)
	movl	$0, 12(%esp)
	movl	$255, 8(%esp)
	movl	%edx, 4(%esp)
	movl	%eax, (%esp)
	call	_tga_set_pixel
L43:
	.loc 1 343 0
	cmpl	$0, 16(%ebp)
	jne	L45
	.loc 1 351 0
	nop
	leave
	.cfi_restore 5
	.cfi_def_cfa 4, 4
	ret
	.cfi_endproc
LFE26:
	.globl	_tga_fd_draw_pixel
	.def	_tga_fd_draw_pixel;	.scl	2;	.type	32;	.endef
_tga_fd_draw_pixel:
LFB27:
	.loc 1 355 0
	.cfi_startproc
	pushl	%ebp
	.cfi_def_cfa_offset 8
	.cfi_offset 5, -8
	movl	%esp, %ebp
	.cfi_def_cfa_register 5
	subl	$8, %esp
	.loc 1 356 0
	cmpl	$0, 16(%ebp)
	je	L47
	.loc 1 358 0
	movl	12(%ebp), %eax
	movl	%eax, 4(%esp)
	movl	8(%ebp), %eax
	movl	%eax, (%esp)
	call	_tga_fd_draw_fg_pixel
	.loc 1 364 0
	jmp	L49
L47:
	.loc 1 362 0
	movl	12(%ebp), %eax
	movl	%eax, 4(%esp)
	movl	8(%ebp), %eax
	movl	%eax, (%esp)
	call	_tga_fd_draw_bg_pixel
L49:
	.loc 1 364 0
	nop
	leave
	.cfi_restore 5
	.cfi_def_cfa 4, 4
	ret
	.cfi_endproc
LFE27:
	.globl	_tga_fd_decode_len
	.def	_tga_fd_decode_len;	.scl	2;	.type	32;	.endef
_tga_fd_decode_len:
LFB28:
	.loc 1 367 0
	.cfi_startproc
	pushl	%ebp
	.cfi_def_cfa_offset 8
	.cfi_offset 5, -8
	movl	%esp, %ebp
	.cfi_def_cfa_register 5
	subl	$28, %esp
	.loc 1 369 0
	movl	12(%ebp), %eax
	movl	%eax, -4(%ebp)
L53:
	.loc 1 372 0
	movl	8(%ebp), %eax
	movl	20(%eax), %eax
	movl	%eax, -8(%ebp)
	.loc 1 373 0
	movl	8(%ebp), %eax
	movl	12(%eax), %eax
	subl	%eax, -8(%ebp)
	.loc 1 374 0
	movl	-4(%ebp), %eax
	cmpl	-8(%ebp), %eax
	jb	L55
	.loc 1 376 0
	movl	16(%ebp), %eax
	movl	%eax, 8(%esp)
	movl	-8(%ebp), %eax
	movl	%eax, 4(%esp)
	movl	8(%ebp), %eax
	movl	%eax, (%esp)
	call	_tga_fd_draw_pixel
	.loc 1 377 0
	movl	-8(%ebp), %eax
	subl	%eax, -4(%ebp)
	.loc 1 378 0
	movl	8(%ebp), %eax
	movl	$0, 12(%eax)
	.loc 1 379 0
	movl	8(%ebp), %eax
	movl	16(%eax), %eax
	leal	1(%eax), %edx
	movl	8(%ebp), %eax
	movl	%edx, 16(%eax)
	.loc 1 372 0
	jmp	L53
L55:
	.loc 1 375 0
	nop
	.loc 1 381 0
	movl	16(%ebp), %eax
	movl	%eax, 8(%esp)
	movl	-4(%ebp), %eax
	movl	%eax, 4(%esp)
	movl	8(%ebp), %eax
	movl	%eax, (%esp)
	call	_tga_fd_draw_pixel
	.loc 1 382 0
	movl	8(%ebp), %eax
	movl	12(%eax), %edx
	movl	-4(%ebp), %eax
	addl	%eax, %edx
	movl	8(%ebp), %eax
	movl	%edx, 12(%eax)
	.loc 1 383 0
	nop
	leave
	.cfi_restore 5
	.cfi_def_cfa 4, 4
	ret
	.cfi_endproc
LFE28:
	.globl	_tga_fd_decode
	.def	_tga_fd_decode;	.scl	2;	.type	32;	.endef
_tga_fd_decode:
LFB29:
	.loc 1 386 0
	.cfi_startproc
	pushl	%ebp
	.cfi_def_cfa_offset 8
	.cfi_offset 5, -8
	movl	%esp, %ebp
	.cfi_def_cfa_register 5
	subl	$44, %esp
	.loc 1 390 0
	movl	$0, -4(%ebp)
	.loc 1 392 0
	movl	8(%ebp), %eax
	movl	12(%ebp), %edx
	movl	%edx, 28(%eax)
	.loc 1 393 0
	movl	8(%ebp), %eax
	movl	$0, 32(%eax)
	.loc 1 395 0
	movl	8(%ebp), %eax
	movl	28(%eax), %eax
	leal	1(%eax), %edx
	movl	8(%ebp), %eax
	movl	%edx, 28(%eax)
	.loc 1 396 0
	movl	8(%ebp), %eax
	movl	28(%eax), %eax
	leal	1(%eax), %edx
	movl	8(%ebp), %eax
	movl	%edx, 28(%eax)
	.loc 1 398 0
	movl	_bits_per_char_width, %eax
	movl	%eax, 4(%esp)
	movl	8(%ebp), %eax
	movl	%eax, (%esp)
	call	_tga_fd_get_unsigned_bits
	movl	%eax, %edx
	movl	8(%ebp), %eax
	movl	%edx, 20(%eax)
	.loc 1 399 0
	movl	_bits_per_char_height, %eax
	movl	%eax, 4(%esp)
	movl	8(%ebp), %eax
	movl	%eax, (%esp)
	call	_tga_fd_get_unsigned_bits
	movl	%eax, %edx
	movl	8(%ebp), %eax
	movl	%edx, 24(%eax)
	.loc 1 400 0
	movl	_bits_per_char_x, %eax
	movl	%eax, 4(%esp)
	movl	8(%ebp), %eax
	movl	%eax, (%esp)
	call	_tga_fd_get_signed_bits
	movl	%eax, -8(%ebp)
	.loc 1 401 0
	movl	_bits_per_char_y, %eax
	movl	%eax, 4(%esp)
	movl	8(%ebp), %eax
	movl	%eax, (%esp)
	call	_tga_fd_get_signed_bits
	movl	%eax, -12(%ebp)
	.loc 1 402 0
	movl	_bits_per_delta_x, %eax
	movl	%eax, 4(%esp)
	movl	8(%ebp), %eax
	movl	%eax, (%esp)
	call	_tga_fd_get_signed_bits
	movl	%eax, -4(%ebp)
	.loc 1 404 0
	movl	8(%ebp), %eax
	movl	20(%eax), %eax
	testl	%eax, %eax
	je	L57
	.loc 1 407 0
	movl	8(%ebp), %eax
	movl	(%eax), %edx
	movl	-8(%ebp), %eax
	addl	%eax, %edx
	movl	8(%ebp), %eax
	movl	%edx, (%eax)
	.loc 1 408 0
	movl	8(%ebp), %eax
	movl	4(%eax), %edx
	movl	8(%ebp), %eax
	movl	24(%eax), %eax
	subl	%eax, %edx
	movl	8(%ebp), %eax
	movl	%edx, 4(%eax)
	.loc 1 409 0
	movl	8(%ebp), %eax
	movl	4(%eax), %edx
	movl	-12(%ebp), %eax
	subl	%eax, %edx
	movl	8(%ebp), %eax
	movl	%edx, 4(%eax)
	.loc 1 412 0
	movl	8(%ebp), %eax
	movl	$0, 12(%eax)
	.loc 1 413 0
	movl	8(%ebp), %eax
	movl	$0, 16(%eax)
L60:
	.loc 1 418 0
	movl	_bits_per_0, %eax
	movl	%eax, 4(%esp)
	movl	8(%ebp), %eax
	movl	%eax, (%esp)
	call	_tga_fd_get_unsigned_bits
	movl	%eax, -16(%ebp)
	.loc 1 419 0
	movl	_bits_per_1, %eax
	movl	%eax, 4(%esp)
	movl	8(%ebp), %eax
	movl	%eax, (%esp)
	call	_tga_fd_get_unsigned_bits
	movl	%eax, -20(%ebp)
L58:
	.loc 1 422 0 discriminator 1
	movl	$0, 8(%esp)
	movl	-16(%ebp), %eax
	movl	%eax, 4(%esp)
	movl	8(%ebp), %eax
	movl	%eax, (%esp)
	call	_tga_fd_decode_len
	.loc 1 423 0 discriminator 1
	movl	$1, 8(%esp)
	movl	-20(%ebp), %eax
	movl	%eax, 4(%esp)
	movl	8(%ebp), %eax
	movl	%eax, (%esp)
	call	_tga_fd_decode_len
	.loc 1 424 0 discriminator 1
	movl	$1, 4(%esp)
	movl	8(%ebp), %eax
	movl	%eax, (%esp)
	call	_tga_fd_get_unsigned_bits
	testl	%eax, %eax
	jne	L58
	.loc 1 426 0
	movl	8(%ebp), %eax
	movl	16(%eax), %edx
	movl	8(%ebp), %eax
	movl	24(%eax), %eax
	cmpl	%eax, %edx
	jnb	L62
	.loc 1 418 0
	jmp	L60
L62:
	.loc 1 427 0
	nop
L57:
	.loc 1 430 0
	movl	-4(%ebp), %eax
	.loc 1 431 0
	leave
	.cfi_restore 5
	.cfi_def_cfa 4, 4
	ret
	.cfi_endproc
LFE29:
	.globl	_tga_fd_decode_old
	.def	_tga_fd_decode_old;	.scl	2;	.type	32;	.endef
_tga_fd_decode_old:
LFB30:
	.loc 1 434 0
	.cfi_startproc
	pushl	%ebp
	.cfi_def_cfa_offset 8
	.cfi_offset 5, -8
	movl	%esp, %ebp
	.cfi_def_cfa_register 5
	subl	$40, %esp
	.loc 1 438 0
	movl	$0, -8(%ebp)
	.loc 1 443 0
	movl	8(%ebp), %eax
	movl	12(%ebp), %edx
	movl	%edx, 28(%eax)
	.loc 1 444 0
	movl	8(%ebp), %eax
	movl	$0, 32(%eax)
	.loc 1 446 0
	movl	8(%ebp), %eax
	movl	28(%eax), %eax
	leal	1(%eax), %edx
	movl	8(%ebp), %eax
	movl	%edx, 28(%eax)
	.loc 1 449 0
	movl	8(%ebp), %eax
	movl	28(%eax), %eax
	leal	1(%eax), %edx
	movl	8(%ebp), %eax
	movl	%edx, 28(%eax)
	.loc 1 451 0
	movl	_bits_per_char_width, %eax
	movl	%eax, 4(%esp)
	movl	8(%ebp), %eax
	movl	%eax, (%esp)
	call	_tga_fd_get_unsigned_bits
	movl	%eax, %edx
	movl	8(%ebp), %eax
	movl	%edx, 20(%eax)
	.loc 1 452 0
	movl	_bits_per_char_height, %eax
	movl	%eax, 4(%esp)
	movl	8(%ebp), %eax
	movl	%eax, (%esp)
	call	_tga_fd_get_unsigned_bits
	movl	%eax, %edx
	movl	8(%ebp), %eax
	movl	%edx, 24(%eax)
	.loc 1 453 0
	movl	_bits_per_char_x, %eax
	movl	%eax, 4(%esp)
	movl	8(%ebp), %eax
	movl	%eax, (%esp)
	call	_tga_fd_get_signed_bits
	movl	%eax, -12(%ebp)
	.loc 1 454 0
	movl	_bits_per_char_y, %eax
	movl	%eax, 4(%esp)
	movl	8(%ebp), %eax
	movl	%eax, (%esp)
	call	_tga_fd_get_signed_bits
	movl	%eax, -16(%ebp)
	.loc 1 455 0
	movl	_bits_per_delta_x, %eax
	movl	%eax, 4(%esp)
	movl	8(%ebp), %eax
	movl	%eax, (%esp)
	call	_tga_fd_get_signed_bits
	movl	%eax, -8(%ebp)
	.loc 1 459 0
	movl	8(%ebp), %eax
	movl	20(%eax), %eax
	testl	%eax, %eax
	je	L64
	.loc 1 468 0
	movl	8(%ebp), %eax
	movl	(%eax), %edx
	movl	-12(%ebp), %eax
	addl	%eax, %edx
	movl	8(%ebp), %eax
	movl	%edx, (%eax)
	.loc 1 469 0
	movl	8(%ebp), %eax
	movl	4(%eax), %edx
	movl	8(%ebp), %eax
	movl	24(%eax), %eax
	subl	%eax, %edx
	movl	8(%ebp), %eax
	movl	%edx, 4(%eax)
	.loc 1 470 0
	movl	8(%ebp), %eax
	movl	4(%eax), %edx
	movl	-16(%ebp), %eax
	subl	%eax, %edx
	movl	8(%ebp), %eax
	movl	%edx, 4(%eax)
	.loc 1 474 0
	movl	8(%ebp), %eax
	movl	$0, 12(%eax)
	.loc 1 475 0
	movl	8(%ebp), %eax
	movl	$0, 16(%eax)
L71:
	.loc 1 484 0
	movl	_bits_per_0, %eax
	movl	%eax, 4(%esp)
	movl	8(%ebp), %eax
	movl	%eax, (%esp)
	call	_tga_fd_get_unsigned_bits
	movl	%eax, -20(%ebp)
	.loc 1 485 0
	movl	_bits_per_1, %eax
	movl	%eax, 4(%esp)
	movl	8(%ebp), %eax
	movl	%eax, (%esp)
	call	_tga_fd_get_unsigned_bits
	movl	%eax, -24(%ebp)
L69:
	.loc 1 489 0
	movl	$0, -4(%ebp)
	jmp	L65
L66:
	.loc 1 491 0 discriminator 3
	movl	$1, 4(%esp)
	movl	8(%ebp), %eax
	movl	%eax, (%esp)
	call	_tga_fd_draw_bg_pixel
	.loc 1 492 0 discriminator 3
	movl	8(%ebp), %eax
	movl	%eax, (%esp)
	call	_tga_fd_inc
	.loc 1 489 0 discriminator 3
	addl	$1, -4(%ebp)
L65:
	.loc 1 489 0 is_stmt 0 discriminator 1
	movl	-4(%ebp), %eax
	cmpl	-20(%ebp), %eax
	jb	L66
	.loc 1 506 0 is_stmt 1
	movl	$0, -4(%ebp)
	jmp	L67
L68:
	.loc 1 508 0 discriminator 3
	movl	$1, 4(%esp)
	movl	8(%ebp), %eax
	movl	%eax, (%esp)
	call	_tga_fd_draw_fg_pixel
	.loc 1 509 0 discriminator 3
	movl	8(%ebp), %eax
	movl	%eax, (%esp)
	call	_tga_fd_inc
	.loc 1 506 0 discriminator 3
	addl	$1, -4(%ebp)
L67:
	.loc 1 506 0 is_stmt 0 discriminator 1
	movl	-4(%ebp), %eax
	cmpl	-24(%ebp), %eax
	jb	L68
	.loc 1 512 0 is_stmt 1
	movl	$1, 4(%esp)
	movl	8(%ebp), %eax
	movl	%eax, (%esp)
	call	_tga_fd_get_unsigned_bits
	testl	%eax, %eax
	jne	L69
	.loc 1 514 0
	movl	8(%ebp), %eax
	movl	16(%eax), %edx
	movl	8(%ebp), %eax
	movl	24(%eax), %eax
	cmpl	%eax, %edx
	jnb	L73
	.loc 1 484 0
	jmp	L71
L73:
	.loc 1 515 0
	nop
L64:
	.loc 1 524 0
	movl	-8(%ebp), %eax
	.loc 1 525 0
	leave
	.cfi_restore 5
	.cfi_def_cfa 4, 4
	ret
	.cfi_endproc
LFE30:
	.globl	_tga_draw_glyph
	.def	_tga_draw_glyph;	.scl	2;	.type	32;	.endef
_tga_draw_glyph:
LFB31:
	.loc 1 528 0
	.cfi_startproc
	pushl	%ebp
	.cfi_def_cfa_offset 8
	.cfi_offset 5, -8
	movl	%esp, %ebp
	.cfi_def_cfa_register 5
	subl	$88, %esp
	movl	16(%ebp), %eax
	movb	%al, -68(%ebp)
	.loc 1 529 0
	movl	$0, -4(%ebp)
	.loc 1 531 0
	movl	8(%ebp), %eax
	movl	%eax, -52(%ebp)
	.loc 1 532 0
	movl	12(%ebp), %eax
	movl	%eax, -48(%ebp)
	.loc 1 533 0
	cmpl	$0, 20(%ebp)
	sete	%al
	movzbl	%al, %eax
	movl	%eax, -44(%ebp)
	.loc 1 534 0
	movzbl	-68(%ebp), %eax
	movl	%eax, (%esp)
	call	_tga_get_glyph_data
	movl	%eax, -8(%ebp)
	.loc 1 535 0
	cmpl	$0, -8(%ebp)
	je	L75
	.loc 1 537 0
	movl	-8(%ebp), %eax
	movl	%eax, 4(%esp)
	leal	-52(%ebp), %eax
	movl	%eax, (%esp)
	call	_tga_fd_decode
	movl	%eax, -4(%ebp)
	.loc 1 538 0
	cmpl	$0, 20(%ebp)
	je	L75
	.loc 1 540 0
	movl	12(%ebp), %eax
	movzwl	%ax, %edx
	movl	8(%ebp), %eax
	movl	%eax, %ecx
	movl	-4(%ebp), %eax
	addl	%ecx, %eax
	movzwl	%ax, %eax
	movl	$240, 16(%esp)
	movl	$133, 12(%esp)
	movl	$28, 8(%esp)
	movl	%edx, 4(%esp)
	movl	%eax, (%esp)
	call	_tga_set_pixel
	.loc 1 541 0
	movl	12(%ebp), %eax
	movzwl	%ax, %edx
	movl	8(%ebp), %eax
	movzwl	%ax, %eax
	movl	$0, 16(%esp)
	movl	$164, 12(%esp)
	movl	$255, 8(%esp)
	movl	%edx, 4(%esp)
	movl	%eax, (%esp)
	call	_tga_set_pixel
L75:
	.loc 1 544 0
	movl	-4(%ebp), %eax
	.loc 1 545 0
	leave
	.cfi_restore 5
	.cfi_def_cfa 4, 4
	ret
	.cfi_endproc
LFE31:
	.globl	_tga_draw_string
	.def	_tga_draw_string;	.scl	2;	.type	32;	.endef
_tga_draw_string:
LFB32:
	.loc 1 548 0
	.cfi_startproc
	pushl	%ebp
	.cfi_def_cfa_offset 8
	.cfi_offset 5, -8
	movl	%esp, %ebp
	.cfi_def_cfa_register 5
	subl	$32, %esp
	.loc 1 549 0
	movl	$0, -4(%ebp)
	.loc 1 550 0
	jmp	L78
L81:
	.loc 1 552 0
	movl	16(%ebp), %eax
	movzbl	(%eax), %eax
	movzbl	%al, %eax
	movl	8(%ebp), %ecx
	movl	-4(%ebp), %edx
	addl	%edx, %ecx
	movl	20(%ebp), %edx
	movl	%edx, 12(%esp)
	movl	%eax, 8(%esp)
	movl	12(%ebp), %eax
	movl	%eax, 4(%esp)
	movl	%ecx, (%esp)
	call	_tga_draw_glyph
	addl	%eax, -4(%ebp)
	.loc 1 553 0
	cmpl	$0, 24(%ebp)
	je	L79
	.loc 1 554 0
	movl	-4(%ebp), %eax
	cmpl	24(%ebp), %eax
	ja	L83
L79:
	.loc 1 556 0
	addl	$1, 16(%ebp)
L78:
	.loc 1 550 0
	movl	16(%ebp), %eax
	movzbl	(%eax), %eax
	testb	%al, %al
	jne	L81
	jmp	L80
L83:
	.loc 1 555 0
	nop
L80:
	.loc 1 558 0
	movl	-4(%ebp), %eax
	.loc 1 559 0
	leave
	.cfi_restore 5
	.cfi_def_cfa 4, 4
	ret
	.cfi_endproc
LFE32:
Letext0:
	.file 2 "/usr/include/machine/_default_types.h"
	.file 3 "/usr/include/sys/_stdint.h"
	.file 4 "/usr/lib/gcc/i686-pc-msys/6.4.0/include/stddef.h"
	.file 5 "/usr/include/sys/lock.h"
	.file 6 "/usr/include/sys/_types.h"
	.file 7 "/usr/include/sys/reent.h"
	.file 8 "/usr/include/stdio.h"
	.file 9 "/usr/include/stdlib.h"