	.file	"bdf_map.c"
	.text
Ltext0:
.lcomm _range_from,4,4
.lcomm _range_to,4,4
.lcomm _is_exclude,4,4
.lcomm _map_to,4,4
	.def	_skip_space;	.scl	3;	.type	32;	.endef
_skip_space:
LFB12:
	.file 1 "bdf_map.c"
	.loc 1 33 0
	.cfi_startproc
	pushl	%ebp
	.cfi_def_cfa_offset 8
	.cfi_offset 5, -8
	movl	%esp, %ebp
	.cfi_def_cfa_register 5
L5:
	.loc 1 36 0
	movl	8(%ebp), %eax
	movl	(%eax), %eax
	movzbl	(%eax), %eax
	testb	%al, %al
	je	L6
	.loc 1 38 0
	movl	8(%ebp), %eax
	movl	(%eax), %eax
	movzbl	(%eax), %eax
	cmpb	$32, %al
	jg	L7
	.loc 1 40 0
	movl	8(%ebp), %eax
	movl	(%eax), %eax
	leal	1(%eax), %edx
	movl	8(%ebp), %eax
	movl	%edx, (%eax)
	.loc 1 36 0
	jmp	L5
L6:
	.loc 1 37 0
	nop
	jmp	L3
L7:
	.loc 1 39 0
	nop
L3:
	.loc 1 42 0
	nop
	popl	%ebp
	.cfi_restore 5
	.cfi_def_cfa 4, 4
	ret
	.cfi_endproc
LFE12:
	.def	_get_dec;	.scl	3;	.type	32;	.endef
_get_dec:
LFB13:
	.loc 1 45 0
	.cfi_startproc
	pushl	%ebp
	.cfi_def_cfa_offset 8
	.cfi_offset 5, -8
	movl	%esp, %ebp
	.cfi_def_cfa_register 5
	subl	$20, %esp
	.loc 1 46 0
	movl	$0, -4(%ebp)
L10:
	.loc 1 49 0
	movl	8(%ebp), %eax
	movl	(%eax), %eax
	movzbl	(%eax), %eax
	cmpb	$47, %al
	jle	L9
	.loc 1 49 0 is_stmt 0 discriminator 1
	movl	8(%ebp), %eax
	movl	(%eax), %eax
	movzbl	(%eax), %eax
	cmpb	$57, %al
	jg	L9
	.loc 1 51 0 is_stmt 1
	movl	-4(%ebp), %edx
	movl	%edx, %eax
	sall	$2, %eax
	addl	%edx, %eax
	addl	%eax, %eax
	movl	%eax, -4(%ebp)
	.loc 1 52 0
	movl	8(%ebp), %eax
	movl	(%eax), %eax
	movzbl	(%eax), %eax
	movsbl	%al, %eax
	subl	$48, %eax
	addl	%eax, -4(%ebp)
	.loc 1 53 0
	movl	8(%ebp), %eax
	movl	(%eax), %eax
	leal	1(%eax), %edx
	movl	8(%ebp), %eax
	movl	%edx, (%eax)
	.loc 1 49 0
	jmp	L10
L9:
	.loc 1 60 0
	movl	8(%ebp), %eax
	movl	%eax, (%esp)
	call	_skip_space
	.loc 1 61 0
	movl	-4(%ebp), %eax
	.loc 1 62 0
	leave
	.cfi_restore 5
	.cfi_def_cfa 4, 4
	ret
	.cfi_endproc
LFE13:
	.def	_get_hex;	.scl	3;	.type	32;	.endef
_get_hex:
LFB14:
	.loc 1 65 0
	.cfi_startproc
	pushl	%ebp
	.cfi_def_cfa_offset 8
	.cfi_offset 5, -8
	movl	%esp, %ebp
	.cfi_def_cfa_register 5
	subl	$20, %esp
	.loc 1 66 0
	movl	$0, -4(%ebp)
L17:
	.loc 1 69 0
	movl	8(%ebp), %eax
	movl	(%eax), %eax
	movzbl	(%eax), %eax
	cmpb	$47, %al
	jle	L13
	.loc 1 69 0 is_stmt 0 discriminator 1
	movl	8(%ebp), %eax
	movl	(%eax), %eax
	movzbl	(%eax), %eax
	cmpb	$57, %al
	jg	L13
	.loc 1 71 0 is_stmt 1
	sall	$4, -4(%ebp)
	.loc 1 72 0
	movl	8(%ebp), %eax
	movl	(%eax), %eax
	movzbl	(%eax), %eax
	movsbl	%al, %eax
	subl	$48, %eax
	addl	%eax, -4(%ebp)
	.loc 1 73 0
	movl	8(%ebp), %eax
	movl	(%eax), %eax
	leal	1(%eax), %edx
	movl	8(%ebp), %eax
	movl	%edx, (%eax)
	jmp	L14
L13:
	.loc 1 75 0
	movl	8(%ebp), %eax
	movl	(%eax), %eax
	movzbl	(%eax), %eax
	cmpb	$96, %al
	jle	L15
	.loc 1 75 0 is_stmt 0 discriminator 1
	movl	8(%ebp), %eax
	movl	(%eax), %eax
	movzbl	(%eax), %eax
	cmpb	$102, %al
	jg	L15
	.loc 1 77 0 is_stmt 1
	sall	$4, -4(%ebp)
	.loc 1 78 0
	movl	8(%ebp), %eax
	movl	(%eax), %eax
	movzbl	(%eax), %eax
	movsbl	%al, %eax
	subl	$87, %eax
	addl	%eax, -4(%ebp)
	.loc 1 79 0
	movl	8(%ebp), %eax
	movl	(%eax), %eax
	leal	1(%eax), %edx
	movl	8(%ebp), %eax
	movl	%edx, (%eax)
	jmp	L14
L15:
	.loc 1 81 0
	movl	8(%ebp), %eax
	movl	(%eax), %eax
	movzbl	(%eax), %eax
	cmpb	$64, %al
	jle	L16
	.loc 1 81 0 is_stmt 0 discriminator 1
	movl	8(%ebp), %eax
	movl	(%eax), %eax
	movzbl	(%eax), %eax
	cmpb	$70, %al
	jg	L16
	.loc 1 83 0 is_stmt 1
	sall	$4, -4(%ebp)
	.loc 1 84 0
	movl	8(%ebp), %eax
	movl	(%eax), %eax
	movzbl	(%eax), %eax
	movsbl	%al, %eax
	subl	$55, %eax
	addl	%eax, -4(%ebp)
	.loc 1 85 0
	movl	8(%ebp), %eax
	movl	(%eax), %eax
	leal	1(%eax), %edx
	movl	8(%ebp), %eax
	movl	%edx, (%eax)
L14:
	.loc 1 69 0
	jmp	L17
L16:
	.loc 1 92 0
	movl	8(%ebp), %eax
	movl	%eax, (%esp)
	call	_skip_space
	.loc 1 93 0
	movl	-4(%ebp), %eax
	.loc 1 94 0
	leave
	.cfi_restore 5
	.cfi_def_cfa 4, 4
	ret
	.cfi_endproc
LFE14:
	.def	_get_num;	.scl	3;	.type	32;	.endef
_get_num:
LFB15:
	.loc 1 97 0
	.cfi_startproc
	pushl	%ebp
	.cfi_def_cfa_offset 8
	.cfi_offset 5, -8
	movl	%esp, %ebp
	.cfi_def_cfa_register 5
	subl	$4, %esp
	.loc 1 98 0
	movl	8(%ebp), %eax
	movl	(%eax), %eax
	movzbl	(%eax), %eax
	cmpb	$36, %al
	je	L20
	.loc 1 99 0
	movl	8(%ebp), %eax
	movl	%eax, (%esp)
	call	_get_dec
	jmp	L21
L20:
	.loc 1 100 0
	movl	8(%ebp), %eax
	movl	(%eax), %eax
	leal	1(%eax), %edx
	movl	8(%ebp), %eax
	movl	%edx, (%eax)
	.loc 1 101 0
	movl	8(%ebp), %eax
	movl	%eax, (%esp)
	call	_skip_space
	.loc 1 102 0
	movl	8(%ebp), %eax
	movl	%eax, (%esp)
	call	_get_hex
L21:
	.loc 1 103 0
	leave
	.cfi_restore 5
	.cfi_def_cfa 4, 4
	ret
	.cfi_endproc
LFE15:
	.def	_get_mul;	.scl	3;	.type	32;	.endef
_get_mul:
LFB16:
	.loc 1 106 0
	.cfi_startproc
	pushl	%ebp
	.cfi_def_cfa_offset 8
	.cfi_offset 5, -8
	movl	%esp, %ebp
	.cfi_def_cfa_register 5
	subl	$20, %esp
	.loc 1 108 0
	movl	8(%ebp), %eax
	movl	%eax, (%esp)
	call	_get_num
	movl	%eax, -4(%ebp)
	.loc 1 109 0
	movl	8(%ebp), %eax
	movl	(%eax), %eax
	movzbl	(%eax), %eax
	cmpb	$42, %al
	jne	L23
	.loc 1 111 0
	movl	8(%ebp), %eax
	movl	(%eax), %eax
	leal	1(%eax), %edx
	movl	8(%ebp), %eax
	movl	%edx, (%eax)
	.loc 1 112 0
	movl	8(%ebp), %eax
	movl	%eax, (%esp)
	call	_skip_space
	.loc 1 113 0
	movl	8(%ebp), %eax
	movl	%eax, (%esp)
	call	_get_num
	movl	%eax, %edx
	movl	-4(%ebp), %eax
	imull	%edx, %eax
	movl	%eax, -4(%ebp)
L23:
	.loc 1 115 0
	movl	-4(%ebp), %eax
	.loc 1 116 0
	leave
	.cfi_restore 5
	.cfi_def_cfa 4, 4
	ret
	.cfi_endproc
LFE16:
	.def	_get_add;	.scl	3;	.type	32;	.endef
_get_add:
LFB17:
	.loc 1 119 0
	.cfi_startproc
	pushl	%ebp
	.cfi_def_cfa_offset 8
	.cfi_offset 5, -8
	movl	%esp, %ebp
	.cfi_def_cfa_register 5
	subl	$20, %esp
	.loc 1 121 0
	movl	8(%ebp), %eax
	movl	%eax, (%esp)
	call	_get_mul
	movl	%eax, -4(%ebp)
	.loc 1 122 0
	movl	8(%ebp), %eax
	movl	(%eax), %eax
	movzbl	(%eax), %eax
	cmpb	$43, %al
	jne	L26
	.loc 1 124 0
	movl	8(%ebp), %eax
	movl	(%eax), %eax
	leal	1(%eax), %edx
	movl	8(%ebp), %eax
	movl	%edx, (%eax)
	.loc 1 125 0
	movl	8(%ebp), %eax
	movl	%eax, (%esp)
	call	_skip_space
	.loc 1 126 0
	movl	8(%ebp), %eax
	movl	%eax, (%esp)
	call	_get_mul
	addl	%eax, -4(%ebp)
L26:
	.loc 1 128 0
	movl	-4(%ebp), %eax
	.loc 1 129 0
	leave
	.cfi_restore 5
	.cfi_def_cfa 4, 4
	ret
	.cfi_endproc
LFE17:
	.def	_get_range;	.scl	3;	.type	32;	.endef
_get_range:
LFB18:
	.loc 1 132 0
	.cfi_startproc
	pushl	%ebp
	.cfi_def_cfa_offset 8
	.cfi_offset 5, -8
	movl	%esp, %ebp
	.cfi_def_cfa_register 5
	subl	$4, %esp
	.loc 1 133 0
	movl	8(%ebp), %eax
	movl	%eax, (%esp)
	call	_get_add
	movl	%eax, _range_from
	.loc 1 134 0
	movl	8(%ebp), %eax
	movl	(%eax), %eax
	movzbl	(%eax), %eax
	cmpb	$45, %al
	je	L29
	.loc 1 136 0
	movl	_range_from, %eax
	movl	%eax, _range_to
	.loc 1 144 0
	jmp	L31
L29:
	.loc 1 140 0
	movl	8(%ebp), %eax
	movl	(%eax), %eax
	leal	1(%eax), %edx
	movl	8(%ebp), %eax
	movl	%edx, (%eax)
	.loc 1 141 0
	movl	8(%ebp), %eax
	movl	%eax, (%esp)
	call	_skip_space
	.loc 1 142 0
	movl	8(%ebp), %eax
	movl	%eax, (%esp)
	call	_get_add
	movl	%eax, _range_to
L31:
	.loc 1 144 0
	nop
	leave
	.cfi_restore 5
	.cfi_def_cfa 4, 4
	ret
	.cfi_endproc
LFE18:
	.def	_map_cmd;	.scl	3;	.type	32;	.endef
_map_cmd:
LFB19:
	.loc 1 147 0
	.cfi_startproc
	pushl	%ebp
	.cfi_def_cfa_offset 8
	.cfi_offset 5, -8
	movl	%esp, %ebp
	.cfi_def_cfa_register 5
	subl	$4, %esp
	.loc 1 148 0
	movl	8(%ebp), %eax
	movl	(%eax), %eax
	movzbl	(%eax), %eax
	cmpb	$42, %al
	jne	L33
	.loc 1 150 0
	movl	$32, _range_from
	.loc 1 151 0
	movl	$255, _range_to
	.loc 1 152 0
	movl	$32, _map_to
	.loc 1 153 0
	movl	$0, _is_exclude
	.loc 1 155 0
	movl	8(%ebp), %eax
	movl	(%eax), %eax
	leal	1(%eax), %edx
	movl	8(%ebp), %eax
	movl	%edx, (%eax)
	.loc 1 156 0
	movl	8(%ebp), %eax
	movl	%eax, (%esp)
	call	_skip_space
	.loc 1 180 0
	jmp	L36
L33:
	.loc 1 158 0
	movl	8(%ebp), %eax
	movl	(%eax), %eax
	movzbl	(%eax), %eax
	cmpb	$126, %al
	jne	L35
	.loc 1 160 0
	movl	$1, _is_exclude
	.loc 1 161 0
	movl	$0, _map_to
	.loc 1 163 0
	movl	8(%ebp), %eax
	movl	(%eax), %eax
	leal	1(%eax), %edx
	movl	8(%ebp), %eax
	movl	%edx, (%eax)
	.loc 1 164 0
	movl	8(%ebp), %eax
	movl	%eax, (%esp)
	call	_skip_space
	.loc 1 165 0
	movl	8(%ebp), %eax
	movl	%eax, (%esp)
	call	_get_range
	.loc 1 180 0
	jmp	L36
L35:
	.loc 1 170 0
	movl	$0, _is_exclude
	.loc 1 171 0
	movl	8(%ebp), %eax
	movl	%eax, (%esp)
	call	_get_range
	.loc 1 172 0
	movl	_range_from, %eax
	movl	%eax, _map_to
	.loc 1 173 0
	movl	8(%ebp), %eax
	movl	(%eax), %eax
	movzbl	(%eax), %eax
	cmpb	$62, %al
	jne	L36
	.loc 1 175 0
	movl	8(%ebp), %eax
	movl	(%eax), %eax
	leal	1(%eax), %edx
	movl	8(%ebp), %eax
	movl	%edx, (%eax)
	.loc 1 176 0
	movl	8(%ebp), %eax
	movl	%eax, (%esp)
	call	_skip_space
	.loc 1 177 0
	movl	8(%ebp), %eax
	movl	%eax, (%esp)
	call	_get_add
	movl	%eax, _map_to
L36:
	.loc 1 180 0
	nop
	leave
	.cfi_restore 5
	.cfi_def_cfa 4, 4
	ret
	.cfi_endproc
LFE19:
	.section .rdata,"dr"
	.align 4
LC0:
	.ascii "Map: exclude=%d from=%ld to=%ld map=%ld\0"
	.text
	.globl	_bf_map_cmd
	.def	_bf_map_cmd;	.scl	2;	.type	32;	.endef
_bf_map_cmd:
LFB20:
	.loc 1 183 0
	.cfi_startproc
	pushl	%ebp
	.cfi_def_cfa_offset 8
	.cfi_offset 5, -8
	movl	%esp, %ebp
	.cfi_def_cfa_register 5
	pushl	%ebx
	subl	$52, %esp
	.cfi_offset 3, -12
	.loc 1 186 0
	movl	12(%ebp), %eax
	movl	%eax, (%esp)
	call	_map_cmd
	.loc 1 188 0
	movl	_map_to, %ebx
	movl	_range_to, %ecx
	movl	_range_from, %edx
	movl	_is_exclude, %eax
	movl	%ebx, 20(%esp)
	movl	%ecx, 16(%esp)
	movl	%edx, 12(%esp)
	movl	%eax, 8(%esp)
	movl	$LC0, 4(%esp)
	movl	8(%ebp), %eax
	movl	%eax, (%esp)
	call	_bf_Log
	.loc 1 190 0
	movl	$0, -12(%ebp)
	jmp	L38
L41:
	.loc 1 192 0
	movl	8(%ebp), %eax
	movl	4(%eax), %eax
	movl	-12(%ebp), %edx
	sall	$2, %edx
	addl	%edx, %eax
	movl	(%eax), %eax
	movl	%eax, -16(%ebp)
	.loc 1 193 0
	movl	-16(%ebp), %eax
	movl	4(%eax), %edx
	movl	_range_from, %eax
	cmpl	%eax, %edx
	jl	L39
	.loc 1 193 0 is_stmt 0 discriminator 1
	movl	-16(%ebp), %eax
	movl	4(%eax), %edx
	movl	_range_to, %eax
	cmpl	%eax, %edx
	jg	L39
	.loc 1 195 0 is_stmt 1
	movl	_is_exclude, %eax
	testl	%eax, %eax
	je	L40
	.loc 1 197 0
	movl	-16(%ebp), %eax
	movl	$-1, 8(%eax)
	jmp	L39
L40:
	.loc 1 201 0
	movl	-16(%ebp), %eax
	movl	4(%eax), %edx
	movl	_range_from, %eax
	subl	%eax, %edx
	movl	_map_to, %eax
	addl	%eax, %edx
	movl	-16(%ebp), %eax
	movl	%edx, 8(%eax)
L39:
	.loc 1 190 0 discriminator 2
	addl	$1, -12(%ebp)
L38:
	.loc 1 190 0 is_stmt 0 discriminator 1
	movl	8(%ebp), %eax
	movl	8(%eax), %eax
	cmpl	-12(%ebp), %eax
	jg	L41
	.loc 1 206 0 is_stmt 1
	nop
	addl	$52, %esp
	popl	%ebx
	.cfi_restore 3
	popl	%ebp
	.cfi_restore 5
	.cfi_def_cfa 4, 4
	ret
	.cfi_endproc
LFE20:
	.globl	_bf_map_list
	.def	_bf_map_list;	.scl	2;	.type	32;	.endef
_bf_map_list:
LFB21:
	.loc 1 209 0
	.cfi_startproc
	pushl	%ebp
	.cfi_def_cfa_offset 8
	.cfi_offset 5, -8
	movl	%esp, %ebp
	.cfi_def_cfa_register 5
	subl	$40, %esp
	.loc 1 214 0
	movl	$0, -12(%ebp)
	jmp	L43
L44:
	.loc 1 216 0 discriminator 3
	movl	8(%ebp), %eax
	movl	4(%eax), %eax
	movl	-12(%ebp), %edx
	sall	$2, %edx
	addl	%edx, %eax
	movl	(%eax), %eax
	movl	%eax, -16(%ebp)
	.loc 1 217 0 discriminator 3
	movl	-16(%ebp), %eax
	movl	$-1, 8(%eax)
	.loc 1 214 0 discriminator 3
	addl	$1, -12(%ebp)
L43:
	.loc 1 214 0 is_stmt 0 discriminator 1
	movl	8(%ebp), %eax
	movl	8(%eax), %eax
	cmpl	-12(%ebp), %eax
	jg	L44
	.loc 1 221 0 is_stmt 1
	movl	12(%ebp), %eax
	movl	%eax, (%esp)
	call	_skip_space
L47:
	.loc 1 224 0
	movl	12(%ebp), %eax
	movl	%eax, 4(%esp)
	movl	8(%ebp), %eax
	movl	%eax, (%esp)
	call	_bf_map_cmd
	.loc 1 225 0
	movl	12(%ebp), %eax
	movl	(%eax), %eax
	movzbl	(%eax), %eax
	cmpb	$44, %al
	jne	L49
	.loc 1 227 0
	movl	12(%ebp), %eax
	movl	(%eax), %eax
	leal	1(%eax), %edx
	movl	12(%ebp), %eax
	movl	%edx, (%eax)
	.loc 1 228 0
	movl	12(%ebp), %eax
	movl	%eax, (%esp)
	call	_skip_space
	.loc 1 224 0
	jmp	L47
L49:
	.loc 1 226 0
	nop
	.loc 1 230 0
	nop
	leave
	.cfi_restore 5
	.cfi_def_cfa 4, 4
	ret
	.cfi_endproc
LFE21:
	.section .rdata,"dr"
LC1:
	.ascii "Map: map_cmd_list='%s'\0"
	.text
	.globl	_bf_Map
	.def	_bf_Map;	.scl	2;	.type	32;	.endef
_bf_Map:
LFB22:
	.loc 1 233 0
	.cfi_startproc
	pushl	%ebp
	.cfi_def_cfa_offset 8
	.cfi_offset 5, -8
	movl	%esp, %ebp
	.cfi_def_cfa_register 5
	subl	$24, %esp
	.loc 1 234 0
	movl	12(%ebp), %eax
	movl	%eax, 8(%esp)
	movl	$LC1, 4(%esp)
	movl	8(%ebp), %eax
	movl	%eax, (%esp)
	call	_bf_Log
	.loc 1 235 0
	leal	12(%ebp), %eax
	movl	%eax, 4(%esp)
	movl	8(%ebp), %eax
	movl	%eax, (%esp)
	call	_bf_map_list
	.loc 1 238 0
	nop
	leave
	.cfi_restore 5
	.cfi_def_cfa 4, 4
	ret
	.cfi_endproc
LFE22:
Letext0:
	.file 2 "/usr/include/machine/_default_types.h"
	.file 3 "/usr/lib/gcc/i686-pc-msys/6.4.0/include/stddef.h"
	.file 4 "/usr/include/sys/lock.h"
	.file 5 "/usr/include/sys/_types.h"
	.file 6 "/usr/include/sys/reent.h"
	.file 7 "/usr/include/sys/_stdint.h"
	.file 8 "/usr/include/stdio.h"
	.file 9 "bdf_glyph.h"
	.file 10 "bdf_font.h"