	.file	"bdf_parser.c"
	.text
Ltext0:
	.def	_bf_curr;	.scl	3;	.type	32;	.endef
_bf_curr:
LFB12:
	.file 1 "bdf_parser.c"
	.loc 1 9 0
	.cfi_startproc
	pushl	%ebp
	.cfi_def_cfa_offset 8
	.cfi_offset 5, -8
	movl	%esp, %ebp
	.cfi_def_cfa_register 5
	.loc 1 10 0
	movl	8(%ebp), %eax
	movl	1040(%eax), %eax
	cmpl	$1023, %eax
	jle	L2
	.loc 1 11 0
	movl	$0, %eax
	jmp	L3
L2:
	.loc 1 12 0
	movl	8(%ebp), %eax
	movl	1040(%eax), %eax
	movl	8(%ebp), %edx
	movzbl	16(%edx,%eax), %eax
	movsbl	%al, %eax
L3:
	.loc 1 13 0
	popl	%ebp
	.cfi_restore 5
	.cfi_def_cfa 4, 4
	ret
	.cfi_endproc
LFE12:
	.def	_bf_next;	.scl	3;	.type	32;	.endef
_bf_next:
LFB13:
	.loc 1 16 0
	.cfi_startproc
	pushl	%ebp
	.cfi_def_cfa_offset 8
	.cfi_offset 5, -8
	movl	%esp, %ebp
	.cfi_def_cfa_register 5
	subl	$4, %esp
	.loc 1 17 0
	movl	8(%ebp), %eax
	movl	%eax, (%esp)
	call	_bf_curr
	testl	%eax, %eax
	je	L8
	.loc 1 19 0
	movl	8(%ebp), %eax
	movl	1040(%eax), %eax
	cmpl	$1023, %eax
	jg	L9
	.loc 1 21 0
	movl	8(%ebp), %eax
	movl	1040(%eax), %eax
	leal	1(%eax), %edx
	movl	8(%ebp), %eax
	movl	%edx, 1040(%eax)
	jmp	L4
L8:
	.loc 1 18 0
	nop
	jmp	L4
L9:
	.loc 1 20 0
	nop
L4:
	.loc 1 22 0
	leave
	.cfi_restore 5
	.cfi_def_cfa 4, 4
	ret
	.cfi_endproc
LFE13:
	.def	_bf_skipspace;	.scl	3;	.type	32;	.endef
_bf_skipspace:
LFB14:
	.loc 1 25 0
	.cfi_startproc
	pushl	%ebp
	.cfi_def_cfa_offset 8
	.cfi_offset 5, -8
	movl	%esp, %ebp
	.cfi_def_cfa_register 5
	subl	$20, %esp
L14:
	.loc 1 30 0
	movl	8(%ebp), %eax
	movl	%eax, (%esp)
	call	_bf_curr
	movl	%eax, -4(%ebp)
	.loc 1 31 0
	cmpl	$0, -4(%ebp)
	je	L15
	.loc 1 33 0
	cmpl	$32, -4(%ebp)
	jg	L16
	.loc 1 35 0
	movl	8(%ebp), %eax
	movl	%eax, (%esp)
	call	_bf_next
	.loc 1 30 0
	jmp	L14
L15:
	.loc 1 32 0
	nop
	jmp	L10
L16:
	.loc 1 34 0
	nop
L10:
	.loc 1 37 0
	leave
	.cfi_restore 5
	.cfi_def_cfa 4, 4
	ret
	.cfi_endproc
LFE14:
	.def	_bf_get_identifier;	.scl	3;	.type	32;	.endef
_bf_get_identifier:
LFB15:
	.loc 1 40 0
	.cfi_startproc
	pushl	%ebp
	.cfi_def_cfa_offset 8
	.cfi_offset 5, -8
	movl	%esp, %ebp
	.cfi_def_cfa_register 5
	subl	$20, %esp
	.loc 1 43 0
	movl	$0, -4(%ebp)
	.loc 1 44 0
	movb	$0, _buf.3442
L21:
	.loc 1 47 0
	movl	8(%ebp), %eax
	movl	%eax, (%esp)
	call	_bf_curr
	movl	%eax, -8(%ebp)
	.loc 1 48 0
	cmpl	$32, -8(%ebp)
	jle	L23
	.loc 1 50 0
	cmpl	$1021, -4(%ebp)
	jg	L24
	.loc 1 52 0
	movl	-4(%ebp), %eax
	leal	1(%eax), %edx
	movl	%edx, -4(%ebp)
	movl	-8(%ebp), %edx
	movb	%dl, _buf.3442(%eax)
	.loc 1 53 0
	movl	-4(%ebp), %eax
	addl	$_buf.3442, %eax
	movb	$0, (%eax)
	.loc 1 54 0
	movl	8(%ebp), %eax
	movl	%eax, (%esp)
	call	_bf_next
	.loc 1 47 0
	jmp	L21
L23:
	.loc 1 49 0
	nop
	jmp	L19
L24:
	.loc 1 51 0
	nop
L19:
	.loc 1 56 0
	movl	8(%ebp), %eax
	movl	%eax, (%esp)
	call	_bf_skipspace
	.loc 1 57 0
	movl	$_buf.3442, %eax
	.loc 1 58 0
	leave
	.cfi_restore 5
	.cfi_def_cfa 4, 4
	ret
	.cfi_endproc
LFE15:
	.def	_bf_get_string;	.scl	3;	.type	32;	.endef
_bf_get_string:
LFB16:
	.loc 1 61 0
	.cfi_startproc
	pushl	%ebp
	.cfi_def_cfa_offset 8
	.cfi_offset 5, -8
	movl	%esp, %ebp
	.cfi_def_cfa_register 5
	subl	$20, %esp
	.loc 1 63 0
	movl	$0, -4(%ebp)
	.loc 1 66 0
	movb	$0, _buf.3450
	.loc 1 68 0
	movl	8(%ebp), %eax
	movl	%eax, (%esp)
	call	_bf_curr
	cmpl	$34, %eax
	je	L26
	.loc 1 69 0
	movl	8(%ebp), %eax
	movl	%eax, (%esp)
	call	_bf_get_identifier
	jmp	L27
L26:
	.loc 1 71 0
	movl	8(%ebp), %eax
	movl	%eax, (%esp)
	call	_bf_next
L32:
	.loc 1 75 0
	movl	8(%ebp), %eax
	movl	%eax, (%esp)
	call	_bf_curr
	movl	%eax, -8(%ebp)
	.loc 1 76 0
	cmpl	$0, -8(%ebp)
	je	L34
	.loc 1 78 0
	cmpl	$34, -8(%ebp)
	je	L35
	.loc 1 80 0
	cmpl	$1021, -4(%ebp)
	jg	L36
	.loc 1 82 0
	movl	-4(%ebp), %eax
	leal	1(%eax), %edx
	movl	%edx, -4(%ebp)
	movl	-8(%ebp), %edx
	movb	%dl, _buf.3450(%eax)
	.loc 1 83 0
	movl	-4(%ebp), %eax
	addl	$_buf.3450, %eax
	movb	$0, (%eax)
	.loc 1 84 0
	movl	8(%ebp), %eax
	movl	%eax, (%esp)
	call	_bf_next
	.loc 1 75 0
	jmp	L32
L34:
	.loc 1 77 0
	nop
	jmp	L29
L35:
	.loc 1 79 0
	nop
	jmp	L29
L36:
	.loc 1 81 0
	nop
L29:
	.loc 1 86 0
	movl	8(%ebp), %eax
	movl	%eax, (%esp)
	call	_bf_curr
	cmpl	$34, %eax
	jne	L33
	.loc 1 87 0
	movl	8(%ebp), %eax
	movl	%eax, (%esp)
	call	_bf_next
L33:
	.loc 1 89 0
	movl	8(%ebp), %eax
	movl	%eax, (%esp)
	call	_bf_skipspace
	.loc 1 90 0
	movl	$_buf.3450, %eax
L27:
	.loc 1 91 0
	leave
	.cfi_restore 5
	.cfi_def_cfa 4, 4
	ret
	.cfi_endproc
LFE16:
	.def	_bf_get_eol_string;	.scl	3;	.type	32;	.endef
_bf_get_eol_string:
LFB17:
	.loc 1 94 0
	.cfi_startproc
	pushl	%ebp
	.cfi_def_cfa_offset 8
	.cfi_offset 5, -8
	movl	%esp, %ebp
	.cfi_def_cfa_register 5
	subl	$20, %esp
	.loc 1 96 0
	movl	$0, -4(%ebp)
	.loc 1 99 0
	movb	$0, _buf.3458
	.loc 1 101 0
	movl	8(%ebp), %eax
	movl	%eax, (%esp)
	call	_bf_curr
	cmpl	$34, %eax
	jne	L38
	.loc 1 102 0
	movl	8(%ebp), %eax
	movl	%eax, (%esp)
	call	_bf_get_string
	jmp	L39
L38:
	.loc 1 103 0
	movl	8(%ebp), %eax
	movl	%eax, (%esp)
	call	_bf_next
L43:
	.loc 1 107 0
	movl	8(%ebp), %eax
	movl	%eax, (%esp)
	call	_bf_curr
	movl	%eax, -8(%ebp)
	.loc 1 108 0
	cmpl	$0, -8(%ebp)
	je	L44
	.loc 1 110 0
	cmpl	$10, -8(%ebp)
	je	L41
	.loc 1 110 0 is_stmt 0 discriminator 1
	cmpl	$13, -8(%ebp)
	je	L41
	.loc 1 112 0 is_stmt 1
	cmpl	$1021, -4(%ebp)
	jg	L45
	.loc 1 114 0
	movl	-4(%ebp), %eax
	leal	1(%eax), %edx
	movl	%edx, -4(%ebp)
	movl	-8(%ebp), %edx
	movb	%dl, _buf.3458(%eax)
	.loc 1 115 0
	movl	-4(%ebp), %eax
	addl	$_buf.3458, %eax
	movb	$0, (%eax)
	.loc 1 116 0
	movl	8(%ebp), %eax
	movl	%eax, (%esp)
	call	_bf_next
	.loc 1 107 0
	jmp	L43
L44:
	.loc 1 109 0
	nop
	jmp	L41
L45:
	.loc 1 113 0
	nop
L41:
	.loc 1 119 0
	movl	8(%ebp), %eax
	movl	%eax, (%esp)
	call	_bf_skipspace
	.loc 1 120 0
	movl	$_buf.3458, %eax
L39:
	.loc 1 121 0
	leave
	.cfi_restore 5
	.cfi_def_cfa 4, 4
	ret
	.cfi_endproc
LFE17:
	.def	_bf_get_long;	.scl	3;	.type	32;	.endef
_bf_get_long:
LFB18:
	.loc 1 124 0
	.cfi_startproc
	pushl	%ebp
	.cfi_def_cfa_offset 8
	.cfi_offset 5, -8
	movl	%esp, %ebp
	.cfi_def_cfa_register 5
	subl	$20, %esp
	.loc 1 126 0
	movl	$0, -4(%ebp)
	.loc 1 127 0
	movl	$1, -8(%ebp)
	.loc 1 129 0
	movl	8(%ebp), %eax
	movl	%eax, (%esp)
	call	_bf_curr
	cmpl	$45, %eax
	jne	L47
	.loc 1 131 0
	movl	$-1, -8(%ebp)
	.loc 1 132 0
	movl	8(%ebp), %eax
	movl	%eax, (%esp)
	call	_bf_next
	.loc 1 133 0
	movl	8(%ebp), %eax
	movl	%eax, (%esp)
	call	_bf_skipspace
L47:
	.loc 1 138 0
	movl	8(%ebp), %eax
	movl	%eax, (%esp)
	call	_bf_curr
	movl	%eax, -12(%ebp)
	.loc 1 139 0
	cmpl	$47, -12(%ebp)
	jle	L52
	.loc 1 141 0
	cmpl	$57, -12(%ebp)
	jg	L53
	.loc 1 143 0
	movl	-4(%ebp), %edx
	movl	%edx, %eax
	sall	$2, %eax
	addl	%edx, %eax
	addl	%eax, %eax
	movl	%eax, -4(%ebp)
	.loc 1 144 0
	movl	-12(%ebp), %eax
	subl	$48, %eax
	addl	%eax, -4(%ebp)
	.loc 1 145 0
	movl	8(%ebp), %eax
	movl	%eax, (%esp)
	call	_bf_next
	.loc 1 138 0
	jmp	L47
L52:
	.loc 1 140 0
	nop
	jmp	L49
L53:
	.loc 1 142 0
	nop
L49:
	.loc 1 147 0
	movl	8(%ebp), %eax
	movl	%eax, (%esp)
	call	_bf_skipspace
	.loc 1 149 0
	movl	-4(%ebp), %eax
	imull	-8(%ebp), %eax
	.loc 1 150 0
	leave
	.cfi_restore 5
	.cfi_def_cfa 4, 4
	ret
	.cfi_endproc
LFE18:
	.section .rdata,"dr"
	.align 4
LC0:
	.ascii "Can not add glyph (memory error?)\0"
	.align 4
LC1:
	.ascii "Can not create bitmap (memory error?)\0"
	.text
	.def	_bf_add_glyph_to_list;	.scl	3;	.type	32;	.endef
_bf_add_glyph_to_list:
LFB19:
	.loc 1 182 0
	.cfi_startproc
	pushl	%ebp
	.cfi_def_cfa_offset 8
	.cfi_offset 5, -8
	movl	%esp, %ebp
	.cfi_def_cfa_register 5
	subl	$40, %esp
	.loc 1 184 0
	movl	8(%ebp), %eax
	movl	%eax, (%esp)
	call	_bf_AddGlyph
	movl	%eax, %edx
	movl	8(%ebp), %eax
	movl	%edx, 1084(%eax)
	.loc 1 185 0
	movl	8(%ebp), %eax
	movl	1084(%eax), %eax
	testl	%eax, %eax
	jns	L55
	.loc 1 187 0
	movl	$LC0, 4(%esp)
	movl	8(%ebp), %eax
	movl	%eax, (%esp)
	call	_bf_Error
	.loc 1 188 0
	movl	$0, %eax
	jmp	L56
L55:
	.loc 1 191 0
	movl	8(%ebp), %eax
	movl	4(%eax), %edx
	movl	8(%ebp), %eax
	movl	1084(%eax), %eax
	sall	$2, %eax
	addl	%edx, %eax
	movl	(%eax), %eax
	movl	%eax, -12(%ebp)
	.loc 1 194 0
	movl	8(%ebp), %eax
	movl	1048(%eax), %edx
	movl	-12(%ebp), %eax
	movl	%edx, 4(%eax)
	.loc 1 195 0
	movl	8(%ebp), %eax
	movl	1052(%eax), %edx
	movl	-12(%ebp), %eax
	movl	%edx, 12(%eax)
	.loc 1 196 0
	movl	8(%ebp), %eax
	movl	1056(%eax), %edx
	movl	-12(%ebp), %eax
	movl	%edx, 16(%eax)
	.loc 1 197 0
	movl	8(%ebp), %eax
	movl	1060(%eax), %edx
	movl	-12(%ebp), %eax
	movl	%edx, 20(%eax)
	.loc 1 198 0
	movl	8(%ebp), %eax
	movl	1064(%eax), %edx
	movl	-12(%ebp), %eax
	movl	%edx, 24(%eax)
	.loc 1 199 0
	movl	8(%ebp), %eax
	movl	1068(%eax), %edx
	movl	-12(%ebp), %eax
	movl	%edx, 28(%eax)
	.loc 1 200 0
	movl	8(%ebp), %eax
	movl	1072(%eax), %edx
	movl	-12(%ebp), %eax
	movl	%edx, 32(%eax)
	.loc 1 202 0
	movl	8(%ebp), %eax
	movl	1064(%eax), %edx
	movl	8(%ebp), %eax
	movl	1060(%eax), %eax
	movl	%edx, 8(%esp)
	movl	%eax, 4(%esp)
	movl	-12(%ebp), %eax
	movl	%eax, (%esp)
	call	_bg_SetBitmapSize
	testl	%eax, %eax
	jne	L57
	.loc 1 204 0
	movl	$LC1, 4(%esp)
	movl	8(%ebp), %eax
	movl	%eax, (%esp)
	call	_bf_Error
	.loc 1 205 0
	movl	$0, %eax
	jmp	L56
L57:
	.loc 1 208 0
	movl	8(%ebp), %eax
	movl	1060(%eax), %edx
	movl	-12(%ebp), %eax
	movl	%edx, 44(%eax)
	.loc 1 209 0
	movl	8(%ebp), %eax
	movl	1064(%eax), %edx
	movl	-12(%ebp), %eax
	movl	%edx, 48(%eax)
	.loc 1 217 0
	movl	$1, %eax
L56:
	.loc 1 218 0
	leave
	.cfi_restore 5
	.cfi_def_cfa 4, 4
	ret
	.cfi_endproc
LFE19:
	.section .rdata,"dr"
LC2:
	.ascii "bf->glyph_list != NULL\0"
LC3:
	.ascii "bdf_parser.c\0"
	.text
	.def	_bf_set_pixel_by_halfbyte;	.scl	3;	.type	32;	.endef
_bf_set_pixel_by_halfbyte:
LFB20:
	.loc 1 221 0
	.cfi_startproc
	pushl	%ebp
	.cfi_def_cfa_offset 8
	.cfi_offset 5, -8
	movl	%esp, %ebp
	.cfi_def_cfa_register 5
	subl	$40, %esp
	.loc 1 225 0
	movl	8(%ebp), %eax
	movl	4(%eax), %eax
	testl	%eax, %eax
	jne	L59
	.loc 1 225 0 is_stmt 0 discriminator 1
	movl	$LC2, 12(%esp)
	movl	$___func__.3481, 8(%esp)
	movl	$225, 4(%esp)
	movl	$LC3, (%esp)
	call	___assert_func
L59:
	.loc 1 227 0 is_stmt 1
	movl	8(%ebp), %eax
	movl	4(%eax), %edx
	movl	8(%ebp), %eax
	movl	1084(%eax), %eax
	sall	$2, %eax
	addl	%edx, %eax
	movl	(%eax), %eax
	movl	%eax, -16(%ebp)
	.loc 1 229 0
	movl	$0, -12(%ebp)
	jmp	L60
L62:
	.loc 1 231 0
	movl	12(%ebp), %eax
	andl	$8, %eax
	testl	%eax, %eax
	je	L61
	.loc 1 233 0
	movl	8(%ebp), %eax
	movl	1080(%eax), %edx
	movl	8(%ebp), %eax
	movl	1076(%eax), %eax
	movl	$1, 12(%esp)
	movl	%edx, 8(%esp)
	movl	%eax, 4(%esp)
	movl	-16(%ebp), %eax
	movl	%eax, (%esp)
	call	_bg_SetBitmapPixel
L61:
	.loc 1 235 0 discriminator 2
	sall	12(%ebp)
	.loc 1 236 0 discriminator 2
	movl	8(%ebp), %eax
	movl	1076(%eax), %eax
	leal	1(%eax), %edx
	movl	8(%ebp), %eax
	movl	%edx, 1076(%eax)
	.loc 1 229 0 discriminator 2
	addl	$1, -12(%ebp)
L60:
	.loc 1 229 0 is_stmt 0 discriminator 1
	cmpl	$3, -12(%ebp)
	jle	L62
	.loc 1 238 0 is_stmt 1
	nop
	leave
	.cfi_restore 5
	.cfi_def_cfa 4, 4
	ret
	.cfi_endproc
LFE20:
	.def	_bf_set_pixel_by_hex_char;	.scl	3;	.type	32;	.endef
_bf_set_pixel_by_hex_char:
LFB21:
	.loc 1 241 0
	.cfi_startproc
	pushl	%ebp
	.cfi_def_cfa_offset 8
	.cfi_offset 5, -8
	movl	%esp, %ebp
	.cfi_def_cfa_register 5
	subl	$24, %esp
	.loc 1 242 0
	cmpl	$47, 12(%ebp)
	jle	L64
	.loc 1 242 0 is_stmt 0 discriminator 1
	cmpl	$57, 12(%ebp)
	jg	L64
	.loc 1 243 0 is_stmt 1
	movl	12(%ebp), %eax
	subl	$48, %eax
	movl	%eax, 4(%esp)
	movl	8(%ebp), %eax
	movl	%eax, (%esp)
	call	_bf_set_pixel_by_halfbyte
	jmp	L63
L64:
	.loc 1 244 0
	cmpl	$96, 12(%ebp)
	jle	L66
	.loc 1 244 0 is_stmt 0 discriminator 1
	cmpl	$102, 12(%ebp)
	jg	L66
	.loc 1 245 0 is_stmt 1
	movl	12(%ebp), %eax
	subl	$87, %eax
	movl	%eax, 4(%esp)
	movl	8(%ebp), %eax
	movl	%eax, (%esp)
	call	_bf_set_pixel_by_halfbyte
	jmp	L63
L66:
	.loc 1 246 0
	cmpl	$64, 12(%ebp)
	jle	L67
	.loc 1 246 0 is_stmt 0 discriminator 1
	cmpl	$70, 12(%ebp)
	jg	L67
	.loc 1 247 0 is_stmt 1
	movl	12(%ebp), %eax
	subl	$55, %eax
	movl	%eax, 4(%esp)
	movl	8(%ebp), %eax
	movl	%eax, (%esp)
	call	_bf_set_pixel_by_halfbyte
	jmp	L63
L67:
	.loc 1 248 0
	movl	$0, 4(%esp)
	movl	8(%ebp), %eax
	movl	%eax, (%esp)
	call	_bf_set_pixel_by_halfbyte
L63:
	.loc 1 249 0
	leave
	.cfi_restore 5
	.cfi_def_cfa 4, 4
	ret
	.cfi_endproc
LFE21:
	.section .rdata,"dr"
LC4:
	.ascii "STARTFONT\0"
LC5:
	.ascii "FONT\0"
LC6:
	.ascii "SIZE\0"
LC7:
	.ascii "FONTBOUNDINGBOX\0"
LC8:
	.ascii "STARTPROPERTIES\0"
LC9:
	.ascii "FONTNAME_REGISTRY\0"
LC10:
	.ascii "FOUNDRY\0"
LC11:
	.ascii "FAMILY_NAME\0"
LC12:
	.ascii "WEIGHT_NAME\0"
LC13:
	.ascii "SLANT\0"
LC14:
	.ascii "SETWIDTH_NAME\0"
LC15:
	.ascii "ADD_STYLE_NAME\0"
LC16:
	.ascii "PIXEL_SIZE\0"
LC17:
	.ascii "POINT_SIZE\0"
LC18:
	.ascii "RESOLUTION_X\0"
LC19:
	.ascii "RESOLUTION_Y\0"
LC20:
	.ascii "SPACING\0"
LC21:
	.ascii "AVERAGE_WIDTH\0"
LC22:
	.ascii "CHARSET_REGISTRY\0"
LC23:
	.ascii "CHARSET_ENCODING\0"
LC24:
	.ascii "DESTINATION\0"
LC25:
	.ascii "COPYRIGHT\0"
LC26:
	.ascii "_XMBDFED_INFO\0"
LC27:
	.ascii "CAP_HEIGHT\0"
LC28:
	.ascii "X_HEIGHT\0"
LC29:
	.ascii "WEIGHT\0"
LC30:
	.ascii "QUAD_WIDTH\0"
LC31:
	.ascii "DEFAULT_CHAR\0"
LC32:
	.ascii "FONT_DESCENT\0"
LC33:
	.ascii "FONT_ASCENT\0"
LC34:
	.ascii "ENDPROPERTIES\0"
LC35:
	.ascii "CHARS\0"
LC36:
	.ascii "STARTCHAR\0"
LC37:
	.ascii "ENCODING\0"
LC38:
	.ascii "SWIDTH\0"
LC39:
	.ascii "DWIDTH\0"
LC40:
	.ascii "BBX\0"
LC41:
	.ascii "BITMAP\0"
LC42:
	.ascii "ENDCHAR\0"
LC43:
	.ascii "Unexpected ENDCHAR found\0"
	.text
	.def	_bf_parse_line;	.scl	3;	.type	32;	.endef
_bf_parse_line:
LFB22:
	.loc 1 252 0
	.cfi_startproc
	pushl	%ebp
	.cfi_def_cfa_offset 8
	.cfi_offset 5, -8
	movl	%esp, %ebp
	.cfi_def_cfa_register 5
	subl	$40, %esp
	.loc 1 255 0
	movl	8(%ebp), %eax
	movl	$0, 1040(%eax)
	.loc 1 256 0
	movl	8(%ebp), %eax
	movl	%eax, (%esp)
	call	_bf_skipspace
	.loc 1 258 0
	movl	8(%ebp), %eax
	movl	1044(%eax), %eax
	testl	%eax, %eax
	jne	L69
	.loc 1 261 0
	movl	8(%ebp), %eax
	movl	$0, 1080(%eax)
	.loc 1 262 0
	movl	8(%ebp), %eax
	movl	%eax, (%esp)
	call	_bf_get_string
	movl	%eax, 4(%esp)
	movl	$_cmd.3492, (%esp)
	call	_strcpy
	.loc 1 264 0
	movl	$_cmd.3492, %eax
	movzbl	(%eax), %eax
	testb	%al, %al
	jne	L70
	.loc 1 266 0
	movl	$1, %eax
	jmp	L71
L70:
	.loc 1 268 0
	movl	$LC4, 4(%esp)
	movl	$_cmd.3492, (%esp)
	call	_strcmp
	testl	%eax, %eax
	je	L72
	.loc 1 271 0
	movl	$LC5, 4(%esp)
	movl	$_cmd.3492, (%esp)
	call	_strcmp
	testl	%eax, %eax
	jne	L73
	.loc 1 273 0
	movl	8(%ebp), %eax
	movl	1092(%eax), %eax
	testl	%eax, %eax
	je	L74
	.loc 1 274 0
	movl	8(%ebp), %eax
	movl	1092(%eax), %eax
	movl	%eax, (%esp)
	call	_free
L74:
	.loc 1 275 0
	movl	8(%ebp), %eax
	movl	%eax, (%esp)
	call	_bf_get_eol_string
	movl	%eax, (%esp)
	call	_strdup
	movl	%eax, %edx
	movl	8(%ebp), %eax
	movl	%edx, 1092(%eax)
	jmp	L72
L73:
	.loc 1 277 0
	movl	$LC6, 4(%esp)
	movl	$_cmd.3492, (%esp)
	call	_strcmp
	testl	%eax, %eax
	je	L72
	.loc 1 280 0
	movl	$LC7, 4(%esp)
	movl	$_cmd.3492, (%esp)
	call	_strcmp
	testl	%eax, %eax
	je	L72
	.loc 1 283 0
	movl	$LC8, 4(%esp)
	movl	$_cmd.3492, (%esp)
	call	_strcmp
	testl	%eax, %eax
	je	L72
	.loc 1 286 0
	movl	$LC9, 4(%esp)
	movl	$_cmd.3492, (%esp)
	call	_strcmp
	testl	%eax, %eax
	je	L72
	.loc 1 289 0
	movl	$LC10, 4(%esp)
	movl	$_cmd.3492, (%esp)
	call	_strcmp
	testl	%eax, %eax
	je	L72
	.loc 1 292 0
	movl	$LC11, 4(%esp)
	movl	$_cmd.3492, (%esp)
	call	_strcmp
	testl	%eax, %eax
	je	L72
	.loc 1 295 0
	movl	$LC12, 4(%esp)
	movl	$_cmd.3492, (%esp)
	call	_strcmp
	testl	%eax, %eax
	je	L72
	.loc 1 298 0
	movl	$LC13, 4(%esp)
	movl	$_cmd.3492, (%esp)
	call	_strcmp
	testl	%eax, %eax
	je	L72
	.loc 1 301 0
	movl	$LC14, 4(%esp)
	movl	$_cmd.3492, (%esp)
	call	_strcmp
	testl	%eax, %eax
	je	L72
	.loc 1 304 0
	movl	$LC15, 4(%esp)
	movl	$_cmd.3492, (%esp)
	call	_strcmp
	testl	%eax, %eax
	je	L72
	.loc 1 307 0
	movl	$LC16, 4(%esp)
	movl	$_cmd.3492, (%esp)
	call	_strcmp
	testl	%eax, %eax
	je	L72
	.loc 1 310 0
	movl	$LC17, 4(%esp)
	movl	$_cmd.3492, (%esp)
	call	_strcmp
	testl	%eax, %eax
	je	L72
	.loc 1 313 0
	movl	$LC18, 4(%esp)
	movl	$_cmd.3492, (%esp)
	call	_strcmp
	testl	%eax, %eax
	je	L72
	.loc 1 316 0
	movl	$LC19, 4(%esp)
	movl	$_cmd.3492, (%esp)
	call	_strcmp
	testl	%eax, %eax
	je	L72
	.loc 1 319 0
	movl	$LC20, 4(%esp)
	movl	$_cmd.3492, (%esp)
	call	_strcmp
	testl	%eax, %eax
	je	L72
	.loc 1 322 0
	movl	$LC21, 4(%esp)
	movl	$_cmd.3492, (%esp)
	call	_strcmp
	testl	%eax, %eax
	je	L72
	.loc 1 325 0
	movl	$LC22, 4(%esp)
	movl	$_cmd.3492, (%esp)
	call	_strcmp
	testl	%eax, %eax
	je	L72
	.loc 1 328 0
	movl	$LC23, 4(%esp)
	movl	$_cmd.3492, (%esp)
	call	_strcmp
	testl	%eax, %eax
	je	L72
	.loc 1 331 0
	movl	$LC24, 4(%esp)
	movl	$_cmd.3492, (%esp)
	call	_strcmp
	testl	%eax, %eax
	je	L72
	.loc 1 334 0
	movl	$LC25, 4(%esp)
	movl	$_cmd.3492, (%esp)
	call	_strcmp
	testl	%eax, %eax
	jne	L75
	.loc 1 336 0
	movl	8(%ebp), %eax
	movl	1096(%eax), %eax
	testl	%eax, %eax
	je	L76
	.loc 1 337 0
	movl	8(%ebp), %eax
	movl	1096(%eax), %eax
	movl	%eax, (%esp)
	call	_free
L76:
	.loc 1 338 0
	movl	8(%ebp), %eax
	movl	%eax, (%esp)
	call	_bf_get_eol_string
	movl	%eax, (%esp)
	call	_strdup
	movl	%eax, %edx
	movl	8(%ebp), %eax
	movl	%edx, 1096(%eax)
	jmp	L72
L75:
	.loc 1 340 0
	movl	$LC26, 4(%esp)
	movl	$_cmd.3492, (%esp)
	call	_strcmp
	testl	%eax, %eax
	je	L72
	.loc 1 343 0
	movl	$LC27, 4(%esp)
	movl	$_cmd.3492, (%esp)
	call	_strcmp
	testl	%eax, %eax
	je	L72
	.loc 1 346 0
	movl	$LC28, 4(%esp)
	movl	$_cmd.3492, (%esp)
	call	_strcmp
	testl	%eax, %eax
	je	L72
	.loc 1 349 0
	movl	$LC29, 4(%esp)
	movl	$_cmd.3492, (%esp)
	call	_strcmp
	testl	%eax, %eax
	je	L72
	.loc 1 352 0
	movl	$LC30, 4(%esp)
	movl	$_cmd.3492, (%esp)
	call	_strcmp
	testl	%eax, %eax
	je	L72
	.loc 1 355 0
	movl	$LC31, 4(%esp)
	movl	$_cmd.3492, (%esp)
	call	_strcmp
	testl	%eax, %eax
	je	L72
	.loc 1 358 0
	movl	$LC32, 4(%esp)
	movl	$_cmd.3492, (%esp)
	call	_strcmp
	testl	%eax, %eax
	je	L72
	.loc 1 361 0
	movl	$LC33, 4(%esp)
	movl	$_cmd.3492, (%esp)
	call	_strcmp
	testl	%eax, %eax
	je	L72
	.loc 1 364 0
	movl	$LC34, 4(%esp)
	movl	$_cmd.3492, (%esp)
	call	_strcmp
	testl	%eax, %eax
	je	L72
	.loc 1 367 0
	movl	$LC35, 4(%esp)
	movl	$_cmd.3492, (%esp)
	call	_strcmp
	testl	%eax, %eax
	je	L72
	.loc 1 370 0
	movl	$LC36, 4(%esp)
	movl	$_cmd.3492, (%esp)
	call	_strcmp
	testl	%eax, %eax
	je	L72
	.loc 1 373 0
	movl	$LC37, 4(%esp)
	movl	$_cmd.3492, (%esp)
	call	_strcmp
	testl	%eax, %eax
	jne	L77
	.loc 1 375 0
	movl	8(%ebp), %eax
	movl	%eax, (%esp)
	call	_bf_get_long
	movl	%eax, %edx
	movl	8(%ebp), %eax
	movl	%edx, 1048(%eax)
	jmp	L72
L77:
	.loc 1 378 0
	movl	$LC38, 4(%esp)
	movl	$_cmd.3492, (%esp)
	call	_strcmp
	testl	%eax, %eax
	je	L72
	.loc 1 381 0
	movl	$LC39, 4(%esp)
	movl	$_cmd.3492, (%esp)
	call	_strcmp
	testl	%eax, %eax
	jne	L78
	.loc 1 383 0
	movl	8(%ebp), %eax
	movl	%eax, (%esp)
	call	_bf_get_long
	movl	%eax, %edx
	movl	8(%ebp), %eax
	movl	%edx, 1052(%eax)
	.loc 1 384 0
	movl	8(%ebp), %eax
	movl	%eax, (%esp)
	call	_bf_get_long
	movl	%eax, %edx
	movl	8(%ebp), %eax
	movl	%edx, 1056(%eax)
	jmp	L72
L78:
	.loc 1 387 0
	movl	$LC40, 4(%esp)
	movl	$_cmd.3492, (%esp)
	call	_strcmp
	testl	%eax, %eax
	jne	L79
	.loc 1 389 0
	movl	8(%ebp), %eax
	movl	%eax, (%esp)
	call	_bf_get_long
	movl	%eax, %edx
	movl	8(%ebp), %eax
	movl	%edx, 1060(%eax)
	.loc 1 390 0
	movl	8(%ebp), %eax
	movl	%eax, (%esp)
	call	_bf_get_long
	movl	%eax, %edx
	movl	8(%ebp), %eax
	movl	%edx, 1064(%eax)
	.loc 1 391 0
	movl	8(%ebp), %eax
	movl	%eax, (%esp)
	call	_bf_get_long
	movl	%eax, %edx
	movl	8(%ebp), %eax
	movl	%edx, 1068(%eax)
	.loc 1 392 0
	movl	8(%ebp), %eax
	movl	%eax, (%esp)
	call	_bf_get_long
	movl	%eax, %edx
	movl	8(%ebp), %eax
	movl	%edx, 1072(%eax)
	jmp	L72
L79:
	.loc 1 394 0
	movl	$LC41, 4(%esp)
	movl	$_cmd.3492, (%esp)
	call	_strcmp
	testl	%eax, %eax
	jne	L80
	.loc 1 396 0
	movl	8(%ebp), %eax
	movl	%eax, (%esp)
	call	_bf_add_glyph_to_list
	testl	%eax, %eax
	jne	L81
	.loc 1 397 0
	movl	$0, %eax
	jmp	L71
L81:
	.loc 1 398 0
	movl	8(%ebp), %eax
	movl	$1, 1044(%eax)
	jmp	L72
L80:
	.loc 1 400 0
	movl	$LC42, 4(%esp)
	movl	$_cmd.3492, (%esp)
	call	_strcmp
	testl	%eax, %eax
	jne	L72
	.loc 1 402 0
	movl	$LC43, 4(%esp)
	movl	8(%ebp), %eax
	movl	%eax, (%esp)
	call	_bf_Error
	.loc 1 403 0
	movl	$0, %eax
	jmp	L71
L69:
LBB2:
	.loc 1 410 0
	movl	8(%ebp), %eax
	movl	%eax, (%esp)
	call	_bf_get_string
	movl	%eax, 4(%esp)
	movl	$_cmd.3492, (%esp)
	call	_strcpy
	.loc 1 411 0
	movl	$LC42, 4(%esp)
	movl	$_cmd.3492, (%esp)
	call	_strcmp
	testl	%eax, %eax
	jne	L82
	.loc 1 413 0
	movl	8(%ebp), %eax
	movl	$0, 1044(%eax)
	jmp	L72
L82:
	.loc 1 418 0
	movl	8(%ebp), %eax
	movl	$0, 1040(%eax)
	.loc 1 419 0
	movl	8(%ebp), %eax
	movl	%eax, (%esp)
	call	_bf_skipspace
	.loc 1 422 0
	movl	8(%ebp), %eax
	movl	$0, 1076(%eax)
L85:
	.loc 1 427 0
	movl	8(%ebp), %eax
	movl	%eax, (%esp)
	call	_bf_curr
	movl	%eax, -12(%ebp)
	.loc 1 428 0
	cmpl	$47, -12(%ebp)
	jle	L87
	.loc 1 430 0
	movl	-12(%ebp), %eax
	movl	%eax, 4(%esp)
	movl	8(%ebp), %eax
	movl	%eax, (%esp)
	call	_bf_set_pixel_by_hex_char
	.loc 1 431 0
	movl	8(%ebp), %eax
	movl	%eax, (%esp)
	call	_bf_next
	.loc 1 427 0
	jmp	L85
L87:
	.loc 1 429 0
	nop
	.loc 1 434 0
	movl	8(%ebp), %eax
	movl	1080(%eax), %eax
	leal	1(%eax), %edx
	movl	8(%ebp), %eax
	movl	%edx, 1080(%eax)
L72:
LBE2:
	.loc 1 437 0
	movl	$1, %eax
L71:
	.loc 1 438 0
	leave
	.cfi_restore 5
	.cfi_def_cfa 4, 4
	ret
	.cfi_endproc
LFE22:
	.section .rdata,"dr"
LC44:
	.ascii "perse error in line %ld\0"
	.text
	.def	_bf_parse_file;	.scl	3;	.type	32;	.endef
_bf_parse_file:
LFB23:
	.loc 1 441 0
	.cfi_startproc
	pushl	%ebp
	.cfi_def_cfa_offset 8
	.cfi_offset 5, -8
	movl	%esp, %ebp
	.cfi_def_cfa_register 5
	subl	$40, %esp
	.loc 1 442 0
	movl	$0, -12(%ebp)
	.loc 1 443 0
	movl	8(%ebp), %eax
	movl	$0, 1044(%eax)
L93:
	.loc 1 446 0
	addl	$1, -12(%ebp)
	.loc 1 447 0
	movl	8(%ebp), %eax
	movl	1088(%eax), %eax
	movl	8(%ebp), %edx
	addl	$16, %edx
	movl	%eax, 8(%esp)
	movl	$1024, 4(%esp)
	movl	%edx, (%esp)
	call	_fgets
	testl	%eax, %eax
	je	L95
	.loc 1 449 0
	movl	8(%ebp), %eax
	movl	%eax, (%esp)
	call	_bf_parse_line
	testl	%eax, %eax
	jne	L93
	.loc 1 451 0
	movl	-12(%ebp), %eax
	movl	%eax, 8(%esp)
	movl	$LC44, 4(%esp)
	movl	8(%ebp), %eax
	movl	%eax, (%esp)
	call	_bf_Error
	.loc 1 452 0
	movl	$0, %eax
	jmp	L92
L95:
	.loc 1 448 0
	nop
	.loc 1 455 0
	movl	$1, %eax
L92:
	.loc 1 456 0
	leave
	.cfi_restore 5
	.cfi_def_cfa 4, 4
	ret
	.cfi_endproc
LFE23:
	.section .rdata,"dr"
LC45:
	.ascii "r\0"
LC46:
	.ascii "Can not open bdf file '%s'\0"
	.align 4
LC47:
	.ascii "Parse File %s: %d glyph(s) found\0"
	.text
	.globl	_bf_ParseFile
	.def	_bf_ParseFile;	.scl	2;	.type	32;	.endef
_bf_ParseFile:
LFB24:
	.loc 1 459 0
	.cfi_startproc
	pushl	%ebp
	.cfi_def_cfa_offset 8
	.cfi_offset 5, -8
	movl	%esp, %ebp
	.cfi_def_cfa_register 5
	subl	$40, %esp
	.loc 1 461 0
	movl	$LC45, 4(%esp)
	movl	12(%ebp), %eax
	movl	%eax, (%esp)
	call	_fopen
	movl	%eax, %edx
	movl	8(%ebp), %eax
	movl	%edx, 1088(%eax)
	.loc 1 462 0
	movl	8(%ebp), %eax
	movl	1088(%eax), %eax
	testl	%eax, %eax
	jne	L97
	.loc 1 464 0
	movl	12(%ebp), %eax
	movl	%eax, 8(%esp)
	movl	$LC46, 4(%esp)
	movl	8(%ebp), %eax
	movl	%eax, (%esp)
	call	_bf_Error
	.loc 1 465 0
	movl	$0, %eax
	jmp	L98
L97:
	.loc 1 467 0
	movl	8(%ebp), %eax
	movl	%eax, (%esp)
	call	_bf_parse_file
	movl	%eax, -12(%ebp)
	.loc 1 468 0
	movl	8(%ebp), %eax
	movl	1088(%eax), %eax
	movl	%eax, (%esp)
	call	_fclose
	.loc 1 469 0
	movl	8(%ebp), %eax
	movl	8(%eax), %eax
	movl	%eax, 12(%esp)
	movl	12(%ebp), %eax
	movl	%eax, 8(%esp)
	movl	$LC47, 4(%esp)
	movl	8(%ebp), %eax
	movl	%eax, (%esp)
	call	_bf_Log
	.loc 1 470 0
	movl	-12(%ebp), %eax
L98:
	.loc 1 471 0
	leave
	.cfi_restore 5
	.cfi_def_cfa 4, 4
	ret
	.cfi_endproc
LFE24:
.lcomm _buf.3442,1024,32
.lcomm _buf.3450,1024,32
.lcomm _buf.3458,1024,32
	.section .rdata,"dr"
	.align 4
___func__.3481:
	.ascii "bf_set_pixel_by_halfbyte\0"
.lcomm _cmd.3492,1024,32
	.text
Letext0:
	.file 2 "/usr/lib/gcc/i686-pc-msys/6.4.0/include/stddef.h"
	.file 3 "/usr/include/machine/_default_types.h"
	.file 4 "/usr/include/sys/lock.h"
	.file 5 "/usr/include/sys/_types.h"
	.file 6 "/usr/include/sys/reent.h"
	.file 7 "/usr/include/stdlib.h"
	.file 8 "/usr/include/sys/_stdint.h"
	.file 9 "/usr/include/stdio.h"
	.file 10 "bdf_glyph.h"
	.file 11 "bdf_font.h"