	.file	"bdf_8x8.c"
	.text
Ltext0:
	.globl	_bg_8x8_convert
	.def	_bg_8x8_convert;	.scl	2;	.type	32;	.endef
_bg_8x8_convert:
LFB12:
	.file 1 "bdf_8x8.c"
	.loc 1 21 0
	.cfi_startproc
	pushl	%ebp
	.cfi_def_cfa_offset 8
	.cfi_offset 5, -8
	movl	%esp, %ebp
	.cfi_def_cfa_register 5
	subl	$40, %esp
	.loc 1 26 0
	cmpl	$0, 12(%ebp)
	jne	L2
	.loc 1 27 0
	movl	8(%ebp), %eax
	addl	$20, %eax
	movl	%eax, 12(%ebp)
L2:
	.loc 1 29 0
	movl	8(%ebp), %eax
	movl	%eax, (%esp)
	call	_bg_ClearTargetData
	.loc 1 31 0
	movl	12(%ebp), %eax
	movl	(%eax), %eax
	cmpl	$8, %eax
	je	L3
	.loc 1 32 0
	movl	$0, %eax
	jmp	L4
L3:
	.loc 1 33 0
	movl	12(%ebp), %eax
	movl	4(%eax), %eax
	cmpl	$8, %eax
	je	L5
	.loc 1 34 0
	movl	$0, %eax
	jmp	L4
L5:
	.loc 1 54 0
	movl	12(%ebp), %eax
	movl	8(%eax), %eax
	movl	%eax, -12(%ebp)
	jmp	L6
L11:
	.loc 1 56 0
	movl	$0, -20(%ebp)
	.loc 1 57 0
	movl	12(%ebp), %eax
	movl	12(%eax), %edx
	movl	12(%ebp), %eax
	movl	4(%eax), %eax
	addl	%edx, %eax
	subl	$1, %eax
	movl	%eax, -16(%ebp)
	jmp	L7
L9:
	.loc 1 59 0
	sarl	-20(%ebp)
	.loc 1 60 0
	movl	-16(%ebp), %eax
	movl	%eax, 8(%esp)
	movl	-12(%ebp), %eax
	movl	%eax, 4(%esp)
	movl	8(%ebp), %eax
	movl	%eax, (%esp)
	call	_bg_GetBBXPixel
	testl	%eax, %eax
	je	L8
	.loc 1 62 0
	orl	$128, -20(%ebp)
L8:
	.loc 1 57 0 discriminator 2
	subl	$1, -16(%ebp)
L7:
	.loc 1 57 0 is_stmt 0 discriminator 1
	movl	12(%ebp), %eax
	movl	12(%eax), %eax
	cmpl	-16(%ebp), %eax
	jle	L9
	.loc 1 65 0 is_stmt 1
	movl	-20(%ebp), %eax
	movzbl	%al, %eax
	movl	%eax, 4(%esp)
	movl	8(%ebp), %eax
	movl	%eax, (%esp)
	call	_bg_AddTargetData
	testl	%eax, %eax
	jns	L10
	.loc 1 66 0
	movl	$0, %eax
	jmp	L4
L10:
	.loc 1 54 0 discriminator 2
	addl	$1, -12(%ebp)
L6:
	.loc 1 54 0 is_stmt 0 discriminator 1
	movl	12(%ebp), %eax
	movl	8(%eax), %edx
	movl	12(%ebp), %eax
	movl	(%eax), %eax
	addl	%edx, %eax
	cmpl	-12(%ebp), %eax
	jg	L11
	.loc 1 69 0 is_stmt 1
	movl	$1, %eax
L4:
	.loc 1 70 0
	leave
	.cfi_restore 5
	.cfi_def_cfa 4, 4
	ret
	.cfi_endproc
LFE12:
	.section .rdata,"dr"
	.align 4
LC0:
	.ascii "Generate8x8Font: Error, glyph width is not 8, width=%d, encoding=%d\0"
	.align 4
LC1:
	.ascii "Generate8x8Font: Error, glyph height is not 8, height=%d, encoding=%d\0"
	.align 4
LC2:
	.ascii "Generate8x8Font: Error, 8x8 conversion, encoding=%d\0"
	.align 4
LC3:
	.ascii "Generate8x8Font: Error, glyph size is not 8, size=%d, encoding=%d\0"
LC4:
	.ascii "Generate8x8Font: Font size %d\0"
	.text
	.globl	_bf_Generate8x8Font
	.def	_bf_Generate8x8Font;	.scl	2;	.type	32;	.endef
_bf_Generate8x8Font:
LFB13:
	.loc 1 74 0
	.cfi_startproc
	pushl	%ebp
	.cfi_def_cfa_offset 8
	.cfi_offset 5, -8
	movl	%esp, %ebp
	.cfi_def_cfa_register 5
	subl	$72, %esp
	.loc 1 83 0
	movl	$0, -12(%ebp)
	jmp	L13
L17:
	.loc 1 85 0
	movl	8(%ebp), %eax
	movl	4(%eax), %eax
	movl	-12(%ebp), %edx
	sall	$2, %edx
	addl	%edx, %eax
	movl	(%eax), %eax
	movl	%eax, -36(%ebp)
	.loc 1 86 0
	movl	-36(%ebp), %eax
	movl	8(%eax), %eax
	testl	%eax, %eax
	js	L14
	.loc 1 88 0
	movl	-36(%ebp), %eax
	movl	%eax, 8(%esp)
	leal	-52(%ebp), %eax
	movl	%eax, 4(%esp)
	movl	8(%ebp), %eax
	movl	%eax, (%esp)
	call	_bf_copy_bbx_and_update_shift
	.loc 1 90 0
	movl	-52(%ebp), %eax
	cmpl	$8, %eax
	je	L15
	.loc 1 92 0
	movl	-36(%ebp), %eax
	movl	4(%eax), %edx
	movl	-52(%ebp), %eax
	movl	%edx, 12(%esp)
	movl	%eax, 8(%esp)
	movl	$LC0, 4(%esp)
	movl	8(%ebp), %eax
	movl	%eax, (%esp)
	call	_bf_Log
	jmp	L14
L15:
	.loc 1 96 0
	movl	-48(%ebp), %eax
	cmpl	$8, %eax
	je	L16
	.loc 1 98 0
	movl	-36(%ebp), %eax
	movl	4(%eax), %edx
	movl	-48(%ebp), %eax
	movl	%edx, 12(%esp)
	movl	%eax, 8(%esp)
	movl	$LC1, 4(%esp)
	movl	8(%ebp), %eax
	movl	%eax, (%esp)
	call	_bf_Log
	jmp	L14
L16:
	.loc 1 102 0
	leal	-52(%ebp), %eax
	movl	%eax, 4(%esp)
	movl	-36(%ebp), %eax
	movl	%eax, (%esp)
	call	_bg_8x8_convert
	testl	%eax, %eax
	jne	L14
	.loc 1 104 0
	movl	-36(%ebp), %eax
	movl	4(%eax), %edx
	movl	-36(%ebp), %eax
	movl	60(%eax), %eax
	movl	%edx, 12(%esp)
	movl	%eax, 8(%esp)
	movl	$LC2, 4(%esp)
	movl	8(%ebp), %eax
	movl	%eax, (%esp)
	call	_bf_Log
L14:
	.loc 1 83 0 discriminator 2
	addl	$1, -12(%ebp)
L13:
	.loc 1 83 0 is_stmt 0 discriminator 1
	movl	8(%ebp), %eax
	movl	8(%eax), %eax
	cmpl	-12(%ebp), %eax
	jg	L17
	.loc 1 113 0 is_stmt 1
	movl	$-1, -24(%ebp)
	.loc 1 114 0
	movl	$-1, -28(%ebp)
	.loc 1 116 0
	movl	$0, -16(%ebp)
	jmp	L18
L24:
	.loc 1 118 0
	movl	$0, -12(%ebp)
	jmp	L19
L23:
	.loc 1 120 0
	movl	8(%ebp), %eax
	movl	4(%eax), %eax
	movl	-12(%ebp), %edx
	sall	$2, %edx
	addl	%edx, %eax
	movl	(%eax), %eax
	movl	%eax, -36(%ebp)
	.loc 1 121 0
	movl	-36(%ebp), %eax
	movl	8(%eax), %eax
	cmpl	-16(%ebp), %eax
	jne	L20
	.loc 1 123 0
	movl	-36(%ebp), %eax
	movl	52(%eax), %eax
	testl	%eax, %eax
	je	L20
	.loc 1 126 0
	movl	-36(%ebp), %eax
	movl	60(%eax), %eax
	cmpl	$8, %eax
	je	L21
	.loc 1 128 0
	movl	-36(%ebp), %eax
	movl	4(%eax), %edx
	movl	-36(%ebp), %eax
	movl	60(%eax), %eax
	movl	%edx, 12(%esp)
	movl	%eax, 8(%esp)
	movl	$LC3, 4(%esp)
	movl	8(%ebp), %eax
	movl	%eax, (%esp)
	call	_bf_Log
	jmp	L20
L21:
	.loc 1 132 0
	cmpl	$0, -24(%ebp)
	jns	L22
	.loc 1 133 0
	movl	-16(%ebp), %eax
	movl	%eax, -24(%ebp)
L22:
	.loc 1 134 0
	movl	-16(%ebp), %eax
	movl	%eax, -28(%ebp)
L20:
	.loc 1 118 0 discriminator 2
	addl	$1, -12(%ebp)
L19:
	.loc 1 118 0 is_stmt 0 discriminator 1
	movl	8(%ebp), %eax
	movl	8(%eax), %eax
	cmpl	-12(%ebp), %eax
	jg	L23
	.loc 1 116 0 is_stmt 1 discriminator 2
	addl	$1, -16(%ebp)
L18:
	.loc 1 116 0 is_stmt 0 discriminator 1
	cmpl	$255, -16(%ebp)
	jle	L24
	.loc 1 143 0 is_stmt 1
	movl	-24(%ebp), %eax
	movzbl	%al, %eax
	movl	%eax, 4(%esp)
	movl	8(%ebp), %eax
	movl	%eax, (%esp)
	call	_bf_AddTargetData
	.loc 1 144 0
	movl	-28(%ebp), %eax
	movzbl	%al, %eax
	movl	%eax, 4(%esp)
	movl	8(%ebp), %eax
	movl	%eax, (%esp)
	call	_bf_AddTargetData
	.loc 1 147 0
	movl	-24(%ebp), %eax
	movl	%eax, -16(%ebp)
	jmp	L25
L34:
	.loc 1 149 0
	movl	$0, -32(%ebp)
	.loc 1 150 0
	movl	$0, -12(%ebp)
	jmp	L26
L30:
	.loc 1 152 0
	movl	8(%ebp), %eax
	movl	4(%eax), %eax
	movl	-12(%ebp), %edx
	sall	$2, %edx
	addl	%edx, %eax
	movl	(%eax), %eax
	movl	%eax, -36(%ebp)
	.loc 1 153 0
	movl	-36(%ebp), %eax
	movl	8(%eax), %eax
	cmpl	-16(%ebp), %eax
	jne	L27
	.loc 1 155 0
	movl	-36(%ebp), %eax
	movl	52(%eax), %eax
	testl	%eax, %eax
	je	L27
	.loc 1 158 0
	movl	-36(%ebp), %eax
	movl	60(%eax), %eax
	cmpl	$8, %eax
	jne	L27
	.loc 1 160 0
	movl	$0, -20(%ebp)
	jmp	L28
L29:
	.loc 1 162 0 discriminator 3
	movl	-36(%ebp), %eax
	movl	52(%eax), %edx
	movl	-20(%ebp), %eax
	addl	%edx, %eax
	movzbl	(%eax), %eax
	movzbl	%al, %eax
	movl	%eax, 4(%esp)
	movl	8(%ebp), %eax
	movl	%eax, (%esp)
	call	_bf_AddTargetData
	.loc 1 160 0 discriminator 3
	addl	$1, -20(%ebp)
L28:
	.loc 1 160 0 is_stmt 0 discriminator 1
	movl	-36(%ebp), %eax
	movl	60(%eax), %eax
	cmpl	-20(%ebp), %eax
	jg	L29
	.loc 1 164 0 is_stmt 1
	movl	$1, -32(%ebp)
L27:
	.loc 1 150 0 discriminator 2
	addl	$1, -12(%ebp)
L26:
	.loc 1 150 0 is_stmt 0 discriminator 1
	movl	8(%ebp), %eax
	movl	8(%eax), %eax
	cmpl	-12(%ebp), %eax
	jg	L30
	.loc 1 169 0 is_stmt 1
	cmpl	$0, -32(%ebp)
	jne	L31
	.loc 1 171 0
	movl	$0, -20(%ebp)
	jmp	L32
L33:
	.loc 1 173 0 discriminator 3
	movl	$0, 4(%esp)
	movl	8(%ebp), %eax
	movl	%eax, (%esp)
	call	_bf_AddTargetData
	.loc 1 171 0 discriminator 3
	addl	$1, -20(%ebp)
L32:
	.loc 1 171 0 is_stmt 0 discriminator 1
	cmpl	$7, -20(%ebp)
	jle	L33
L31:
	.loc 1 147 0 is_stmt 1 discriminator 2
	addl	$1, -16(%ebp)
L25:
	.loc 1 147 0 is_stmt 0 discriminator 1
	movl	-16(%ebp), %eax
	cmpl	-28(%ebp), %eax
	jle	L34
	.loc 1 179 0 is_stmt 1
	movl	8(%ebp), %eax
	movl	1184(%eax), %eax
	movl	%eax, 8(%esp)
	movl	$LC4, 4(%esp)
	movl	8(%ebp), %eax
	movl	%eax, (%esp)
	call	_bf_Log
	.loc 1 180 0
	nop
	leave
	.cfi_restore 5
	.cfi_def_cfa 4, 4
	ret
	.cfi_endproc
LFE13:
Letext0:
	.file 2 "/usr/include/machine/_default_types.h"
	.file 3 "/usr/lib/gcc/i686-pc-msys/6.4.0/include/stddef.h"
	.file 4 "/usr/include/sys/lock.h"
	.file 5 "/usr/include/sys/_types.h"
	.file 6 "/usr/include/sys/reent.h"
	.file 7 "/usr/include/sys/_stdint.h"
	.file 8 "/usr/include/stdio.h"
	.file 9 "/usr/include/stdlib.h"
	.file 10 "bdf_glyph.h"
	.file 11 "bdf_font.h"