	.file	"bdf_glyph.c"
	.text
Ltext0:
	.globl	_bg_Open
	.def	_bg_Open;	.scl	2;	.type	32;	.endef
_bg_Open:
LFB12:
	.file 1 "bdf_glyph.c"
	.loc 1 11 0
	.cfi_startproc
	pushl	%ebp
	.cfi_def_cfa_offset 8
	.cfi_offset 5, -8
	movl	%esp, %ebp
	.cfi_def_cfa_register 5
	subl	$40, %esp
	.loc 1 14 0
	movl	$96, (%esp)
	call	_malloc
	movl	%eax, -12(%ebp)
	.loc 1 15 0
	cmpl	$0, -12(%ebp)
	je	L2
	.loc 1 17 0
	movl	-12(%ebp), %eax
	movl	$0, 4(%eax)
	.loc 1 18 0
	movl	-12(%ebp), %eax
	movl	$-1, 8(%eax)
	.loc 1 19 0
	movl	-12(%ebp), %eax
	movl	$0, 40(%eax)
	.loc 1 20 0
	movl	-12(%ebp), %eax
	movl	$0, 52(%eax)
	.loc 1 21 0
	movl	-12(%ebp), %eax
	movl	$0, 56(%eax)
	.loc 1 22 0
	movl	-12(%ebp), %eax
	movl	$0, 60(%eax)
	.loc 1 23 0
	movl	-12(%ebp), %eax
	movl	$0, 36(%eax)
	.loc 1 25 0
	movl	-12(%ebp), %eax
	jmp	L3
L2:
	.loc 1 27 0
	movl	$0, %eax
L3:
	.loc 1 28 0
	leave
	.cfi_restore 5
	.cfi_def_cfa 4, 4
	ret
	.cfi_endproc
LFE12:
	.globl	_bg_Close
	.def	_bg_Close;	.scl	2;	.type	32;	.endef
_bg_Close:
LFB13:
	.loc 1 32 0
	.cfi_startproc
	pushl	%ebp
	.cfi_def_cfa_offset 8
	.cfi_offset 5, -8
	movl	%esp, %ebp
	.cfi_def_cfa_register 5
	subl	$24, %esp
	.loc 1 33 0
	movl	8(%ebp), %eax
	movl	40(%eax), %eax
	testl	%eax, %eax
	je	L5
	.loc 1 34 0
	movl	8(%ebp), %eax
	movl	40(%eax), %eax
	movl	%eax, (%esp)
	call	_free
L5:
	.loc 1 35 0
	movl	8(%ebp), %eax
	movl	52(%eax), %eax
	testl	%eax, %eax
	je	L6
	.loc 1 36 0
	movl	8(%ebp), %eax
	movl	52(%eax), %eax
	movl	%eax, (%esp)
	call	_free
L6:
	.loc 1 37 0
	movl	8(%ebp), %eax
	movl	$0, 40(%eax)
	.loc 1 38 0
	movl	8(%ebp), %eax
	movl	$0, 52(%eax)
	.loc 1 39 0
	movl	8(%ebp), %eax
	movl	$0, 56(%eax)
	.loc 1 40 0
	movl	8(%ebp), %eax
	movl	$0, 60(%eax)
	.loc 1 41 0
	movl	8(%ebp), %eax
	movl	$0, 64(%eax)
	.loc 1 42 0
	movl	8(%ebp), %eax
	movl	$0, 4(%eax)
	.loc 1 43 0
	movl	8(%ebp), %eax
	movl	%eax, (%esp)
	call	_free
	.loc 1 44 0
	nop
	leave
	.cfi_restore 5
	.cfi_def_cfa 4, 4
	ret
	.cfi_endproc
LFE13:
	.def	_bg_extend_target_data;	.scl	3;	.type	32;	.endef
_bg_extend_target_data:
LFB14:
	.loc 1 47 0
	.cfi_startproc
	pushl	%ebp
	.cfi_def_cfa_offset 8
	.cfi_offset 5, -8
	movl	%esp, %ebp
	.cfi_def_cfa_register 5
	subl	$40, %esp
	.loc 1 48 0
	movl	$16, -20(%ebp)
	.loc 1 51 0
	movl	8(%ebp), %eax
	movl	52(%eax), %eax
	testl	%eax, %eax
	jne	L8
	.loc 1 53 0
	movl	-20(%ebp), %eax
	movl	%eax, (%esp)
	call	_malloc
	movl	%eax, -16(%ebp)
	.loc 1 54 0
	movl	8(%ebp), %eax
	movl	$0, 56(%eax)
	jmp	L9
L8:
	.loc 1 58 0
	movl	8(%ebp), %eax
	movl	56(%eax), %edx
	movl	-20(%ebp), %eax
	addl	%edx, %eax
	movl	%eax, %edx
	movl	8(%ebp), %eax
	movl	52(%eax), %eax
	movl	%edx, 4(%esp)
	movl	%eax, (%esp)
	call	_realloc
	movl	%eax, -16(%ebp)
L9:
	.loc 1 60 0
	cmpl	$0, -16(%ebp)
	jne	L10
	.loc 1 61 0
	movl	$0, %eax
	jmp	L11
L10:
	.loc 1 62 0
	movl	8(%ebp), %eax
	movl	-16(%ebp), %edx
	movl	%edx, 52(%eax)
	.loc 1 63 0
	movl	8(%ebp), %eax
	movl	56(%eax), %eax
	movl	%eax, -12(%ebp)
	jmp	L12
L13:
	.loc 1 64 0 discriminator 3
	movl	8(%ebp), %eax
	movl	52(%eax), %edx
	movl	-12(%ebp), %eax
	addl	%edx, %eax
	movb	$0, (%eax)
	.loc 1 63 0 discriminator 3
	addl	$1, -12(%ebp)
L12:
	.loc 1 63 0 is_stmt 0 discriminator 1
	movl	8(%ebp), %eax
	movl	56(%eax), %edx
	movl	-20(%ebp), %eax
	addl	%edx, %eax
	cmpl	-12(%ebp), %eax
	jg	L13
	.loc 1 65 0 is_stmt 1
	movl	8(%ebp), %eax
	movl	56(%eax), %edx
	movl	-20(%ebp), %eax
	addl	%eax, %edx
	movl	8(%ebp), %eax
	movl	%edx, 56(%eax)
	.loc 1 66 0
	movl	$1, %eax
L11:
	.loc 1 67 0
	leave
	.cfi_restore 5
	.cfi_def_cfa 4, 4
	ret
	.cfi_endproc
LFE14:
	.globl	_bg_AddTargetData
	.def	_bg_AddTargetData;	.scl	2;	.type	32;	.endef
_bg_AddTargetData:
LFB15:
	.loc 1 70 0
	.cfi_startproc
	pushl	%ebp
	.cfi_def_cfa_offset 8
	.cfi_offset 5, -8
	movl	%esp, %ebp
	.cfi_def_cfa_register 5
	subl	$40, %esp
	movl	12(%ebp), %eax
	movb	%al, -12(%ebp)
	.loc 1 71 0
	jmp	L15
L17:
	.loc 1 72 0
	movl	8(%ebp), %eax
	movl	%eax, (%esp)
	call	_bg_extend_target_data
	testl	%eax, %eax
	jne	L15
	.loc 1 73 0
	movl	$-1, %eax
	jmp	L16
L15:
	.loc 1 71 0
	movl	8(%ebp), %eax
	movl	56(%eax), %edx
	movl	8(%ebp), %eax
	movl	60(%eax), %eax
	cmpl	%eax, %edx
	jle	L17
	.loc 1 74 0
	movl	8(%ebp), %eax
	movl	52(%eax), %edx
	movl	8(%ebp), %eax
	movl	60(%eax), %eax
	addl	%eax, %edx
	movzbl	-12(%ebp), %eax
	movb	%al, (%edx)
	.loc 1 75 0
	movl	8(%ebp), %eax
	movl	60(%eax), %eax
	leal	1(%eax), %edx
	movl	8(%ebp), %eax
	movl	%edx, 60(%eax)
	.loc 1 76 0
	movl	8(%ebp), %eax
	movl	60(%eax), %eax
	subl	$1, %eax
L16:
	.loc 1 77 0
	leave
	.cfi_restore 5
	.cfi_def_cfa 4, 4
	ret
	.cfi_endproc
LFE15:
	.globl	_bg_ClearTargetData
	.def	_bg_ClearTargetData;	.scl	2;	.type	32;	.endef
_bg_ClearTargetData:
LFB16:
	.loc 1 80 0
	.cfi_startproc
	pushl	%ebp
	.cfi_def_cfa_offset 8
	.cfi_offset 5, -8
	movl	%esp, %ebp
	.cfi_def_cfa_register 5
	subl	$16, %esp
	.loc 1 82 0
	movl	$0, -4(%ebp)
	jmp	L19
L20:
	.loc 1 83 0 discriminator 3
	movl	8(%ebp), %eax
	movl	52(%eax), %edx
	movl	-4(%ebp), %eax
	addl	%edx, %eax
	movb	$0, (%eax)
	.loc 1 82 0 discriminator 3
	addl	$1, -4(%ebp)
L19:
	.loc 1 82 0 is_stmt 0 discriminator 1
	movl	8(%ebp), %eax
	movl	56(%eax), %eax
	cmpl	-4(%ebp), %eax
	jg	L20
	.loc 1 84 0 is_stmt 1
	movl	8(%ebp), %eax
	movl	$0, 60(%eax)
	.loc 1 85 0
	movl	8(%ebp), %eax
	movl	$0, 64(%eax)
	.loc 1 86 0
	nop
	leave
	.cfi_restore 5
	.cfi_def_cfa 4, 4
	ret
	.cfi_endproc
LFE16:
	.section .rdata,"dr"
LC0:
	.ascii "val < (1<<cnt)\0"
LC1:
	.ascii "bdf_glyph.c\0"
	.text
	.globl	_bg_AddTargetBits
	.def	_bg_AddTargetBits;	.scl	2;	.type	32;	.endef
_bg_AddTargetBits:
LFB17:
	.loc 1 97 0
	.cfi_startproc
	pushl	%ebp
	.cfi_def_cfa_offset 8
	.cfi_offset 5, -8
	movl	%esp, %ebp
	.cfi_def_cfa_register 5
	pushl	%ebx
	subl	$36, %esp
	.cfi_offset 3, -12
	.loc 1 99 0
	movl	12(%ebp), %eax
	movl	$1, %edx
	movl	%eax, %ecx
	sall	%cl, %edx
	movl	%edx, %eax
	cmpl	16(%ebp), %eax
	ja	L23
	.loc 1 99 0 is_stmt 0 discriminator 1
	movl	$LC0, 12(%esp)
	movl	$___func__.3328, 8(%esp)
	movl	$99, 4(%esp)
	movl	$LC1, (%esp)
	call	___assert_func
L25:
	.loc 1 102 0 is_stmt 1
	movl	8(%ebp), %eax
	movl	%eax, (%esp)
	call	_bg_extend_target_data
	testl	%eax, %eax
	jne	L23
	.loc 1 103 0
	movl	$0, %eax
	jmp	L24
L23:
	.loc 1 101 0
	movl	8(%ebp), %eax
	movl	56(%eax), %edx
	movl	8(%ebp), %eax
	movl	60(%eax), %eax
	addl	$1, %eax
	cmpl	%eax, %edx
	jle	L25
	.loc 1 105 0
	movl	8(%ebp), %eax
	movl	52(%eax), %edx
	movl	8(%ebp), %eax
	movl	60(%eax), %eax
	addl	%eax, %edx
	movl	8(%ebp), %eax
	movl	52(%eax), %ecx
	movl	8(%ebp), %eax
	movl	60(%eax), %eax
	addl	%ecx, %eax
	movzbl	(%eax), %eax
	movb	%al, -9(%ebp)
	movl	8(%ebp), %eax
	movl	64(%eax), %eax
	movl	16(%ebp), %ebx
	movl	%eax, %ecx
	sall	%cl, %ebx
	movl	%ebx, %eax
	orb	-9(%ebp), %al
	movb	%al, (%edx)
	.loc 1 107 0
	movl	8(%ebp), %eax
	movl	64(%eax), %eax
	movl	%eax, %edx
	movl	12(%ebp), %eax
	addl	%edx, %eax
	cmpl	$7, %eax
	jbe	L26
	.loc 1 109 0
	movl	8(%ebp), %eax
	movl	60(%eax), %eax
	leal	1(%eax), %edx
	movl	8(%ebp), %eax
	movl	%edx, 60(%eax)
	.loc 1 111 0
	movl	8(%ebp), %eax
	movl	64(%eax), %eax
	movl	$8, %edx
	subl	%eax, %edx
	movl	%edx, %eax
	movl	%eax, %ecx
	shrl	%cl, 16(%ebp)
	.loc 1 112 0
	movl	8(%ebp), %eax
	movl	52(%eax), %edx
	movl	8(%ebp), %eax
	movl	60(%eax), %eax
	addl	%edx, %eax
	movl	16(%ebp), %edx
	movb	%dl, (%eax)
	.loc 1 114 0
	movl	8(%ebp), %eax
	movl	64(%eax), %eax
	movl	%eax, %edx
	movl	12(%ebp), %eax
	addl	%edx, %eax
	movl	%eax, %edx
	movl	8(%ebp), %eax
	movl	%edx, 64(%eax)
	.loc 1 115 0
	movl	8(%ebp), %eax
	movl	64(%eax), %eax
	leal	-8(%eax), %edx
	movl	8(%ebp), %eax
	movl	%edx, 64(%eax)
	jmp	L27
L26:
	.loc 1 119 0
	movl	8(%ebp), %eax
	movl	64(%eax), %eax
	movl	%eax, %edx
	movl	12(%ebp), %eax
	addl	%edx, %eax
	movl	%eax, %edx
	movl	8(%ebp), %eax
	movl	%edx, 64(%eax)
L27:
	.loc 1 122 0
	movl	$1, %eax
L24:
	.loc 1 123 0
	addl	$36, %esp
	popl	%ebx
	.cfi_restore 3
	popl	%ebp
	.cfi_restore 5
	.cfi_def_cfa 4, 4
	ret
	.cfi_endproc
LFE17:
	.globl	_bg_FlushTargetBits
	.def	_bg_FlushTargetBits;	.scl	2;	.type	32;	.endef
_bg_FlushTargetBits:
LFB18:
	.loc 1 126 0
	.cfi_startproc
	pushl	%ebp
	.cfi_def_cfa_offset 8
	.cfi_offset 5, -8
	movl	%esp, %ebp
	.cfi_def_cfa_register 5
	subl	$24, %esp
	.loc 1 127 0
	jmp	L29
L31:
	.loc 1 128 0
	movl	$0, 8(%esp)
	movl	$1, 4(%esp)
	movl	8(%ebp), %eax
	movl	%eax, (%esp)
	call	_bg_AddTargetBits
	testl	%eax, %eax
	jne	L29
	.loc 1 129 0
	movl	$0, %eax
	jmp	L30
L29:
	.loc 1 127 0
	movl	8(%ebp), %eax
	movl	64(%eax), %eax
	testl	%eax, %eax
	jne	L31
	.loc 1 130 0
	movl	$1, %eax
L30:
	.loc 1 131 0
	leave
	.cfi_restore 5
	.cfi_def_cfa 4, 4
	ret
	.cfi_endproc
LFE18:
	.globl	_bg_SetBitmapSizeInBytes
	.def	_bg_SetBitmapSizeInBytes;	.scl	2;	.type	32;	.endef
_bg_SetBitmapSizeInBytes:
LFB19:
	.loc 1 135 0
	.cfi_startproc
	pushl	%ebp
	.cfi_def_cfa_offset 8
	.cfi_offset 5, -8
	movl	%esp, %ebp
	.cfi_def_cfa_register 5
	subl	$24, %esp
	.loc 1 136 0
	movl	8(%ebp), %eax
	movl	40(%eax), %eax
	testl	%eax, %eax
	je	L33
	.loc 1 137 0
	movl	8(%ebp), %eax
	movl	40(%eax), %eax
	movl	%eax, (%esp)
	call	_free
L33:
	.loc 1 138 0
	movl	12(%ebp), %eax
	movl	%eax, (%esp)
	call	_malloc
	movl	%eax, %edx
	movl	8(%ebp), %eax
	movl	%edx, 40(%eax)
	.loc 1 139 0
	movl	8(%ebp), %eax
	movl	40(%eax), %eax
	testl	%eax, %eax
	jne	L34
	.loc 1 140 0
	movl	$0, %eax
	jmp	L35
L34:
	.loc 1 141 0
	movl	8(%ebp), %eax
	movl	40(%eax), %eax
	movl	12(%ebp), %edx
	movl	%edx, 8(%esp)
	movl	$0, 4(%esp)
	movl	%eax, (%esp)
	call	_memset
	.loc 1 142 0
	movl	$1, %eax
L35:
	.loc 1 143 0
	leave
	.cfi_restore 5
	.cfi_def_cfa 4, 4
	ret
	.cfi_endproc
LFE19:
	.globl	_bg_SetBitmapSize
	.def	_bg_SetBitmapSize;	.scl	2;	.type	32;	.endef
_bg_SetBitmapSize:
LFB20:
	.loc 1 146 0
	.cfi_startproc
	pushl	%ebp
	.cfi_def_cfa_offset 8
	.cfi_offset 5, -8
	movl	%esp, %ebp
	.cfi_def_cfa_register 5
	subl	$24, %esp
	.loc 1 147 0
	movl	12(%ebp), %eax
	imull	16(%ebp), %eax
	movl	%eax, 4(%esp)
	movl	8(%ebp), %eax
	movl	%eax, (%esp)
	call	_bg_SetBitmapSizeInBytes
	.loc 1 148 0
	leave
	.cfi_restore 5
	.cfi_def_cfa 4, 4
	ret
	.cfi_endproc
LFE20:
	.section .rdata,"dr"
LC2:
	.ascii "x < bg->bitmap_width\0"
LC3:
	.ascii "y < bg->bitmap_height\0"
LC4:
	.ascii "x >= 0\0"
LC5:
	.ascii "y >= 0\0"
	.text
	.globl	_bg_SetBitmapPixel
	.def	_bg_SetBitmapPixel;	.scl	2;	.type	32;	.endef
_bg_SetBitmapPixel:
LFB21:
	.loc 1 151 0
	.cfi_startproc
	pushl	%ebp
	.cfi_def_cfa_offset 8
	.cfi_offset 5, -8
	movl	%esp, %ebp
	.cfi_def_cfa_register 5
	subl	$24, %esp
	.loc 1 152 0
	movl	8(%ebp), %eax
	movl	44(%eax), %eax
	cmpl	12(%ebp), %eax
	jg	L39
	.loc 1 152 0 is_stmt 0 discriminator 1
	movl	$LC2, 12(%esp)
	movl	$___func__.3353, 8(%esp)
	movl	$152, 4(%esp)
	movl	$LC1, (%esp)
	call	___assert_func
L39:
	.loc 1 153 0 is_stmt 1
	movl	8(%ebp), %eax
	movl	48(%eax), %eax
	cmpl	16(%ebp), %eax
	jg	L40
	.loc 1 153 0 is_stmt 0 discriminator 1
	movl	$LC3, 12(%esp)
	movl	$___func__.3353, 8(%esp)
	movl	$153, 4(%esp)
	movl	$LC1, (%esp)
	call	___assert_func
L40:
	.loc 1 154 0 is_stmt 1
	cmpl	$0, 12(%ebp)
	jns	L41
	.loc 1 154 0 is_stmt 0 discriminator 1
	movl	$LC4, 12(%esp)
	movl	$___func__.3353, 8(%esp)
	movl	$154, 4(%esp)
	movl	$LC1, (%esp)
	call	___assert_func
L41:
	.loc 1 155 0 is_stmt 1
	cmpl	$0, 16(%ebp)
	jns	L42
	.loc 1 155 0 is_stmt 0 discriminator 1
	movl	$LC5, 12(%esp)
	movl	$___func__.3353, 8(%esp)
	movl	$155, 4(%esp)
	movl	$LC1, (%esp)
	call	___assert_func
L42:
	.loc 1 156 0 is_stmt 1
	movl	8(%ebp), %eax
	movl	40(%eax), %edx
	movl	8(%ebp), %eax
	movl	44(%eax), %eax
	imull	16(%ebp), %eax
	movl	%eax, %ecx
	movl	12(%ebp), %eax
	addl	%ecx, %eax
	addl	%edx, %eax
	movl	20(%ebp), %edx
	movb	%dl, (%eax)
	.loc 1 157 0
	nop
	leave
	.cfi_restore 5
	.cfi_def_cfa 4, 4
	ret
	.cfi_endproc
LFE21:
	.globl	_bg_GetBitmapPixel
	.def	_bg_GetBitmapPixel;	.scl	2;	.type	32;	.endef
_bg_GetBitmapPixel:
LFB22:
	.loc 1 160 0
	.cfi_startproc
	pushl	%ebp
	.cfi_def_cfa_offset 8
	.cfi_offset 5, -8
	movl	%esp, %ebp
	.cfi_def_cfa_register 5
	.loc 1 161 0
	movl	8(%ebp), %eax
	movl	44(%eax), %eax
	cmpl	12(%ebp), %eax
	jg	L44
	.loc 1 162 0
	movl	$0, %eax
	jmp	L45
L44:
	.loc 1 164 0
	movl	8(%ebp), %eax
	movl	48(%eax), %eax
	cmpl	16(%ebp), %eax
	jg	L46
	.loc 1 165 0
	movl	$0, %eax
	jmp	L45
L46:
	.loc 1 166 0
	cmpl	$0, 12(%ebp)
	jns	L47
	.loc 1 167 0
	movl	$0, %eax
	jmp	L45
L47:
	.loc 1 168 0
	cmpl	$0, 16(%ebp)
	jns	L48
	.loc 1 169 0
	movl	$0, %eax
	jmp	L45
L48:
	.loc 1 171 0
	movl	8(%ebp), %eax
	movl	40(%eax), %edx
	movl	8(%ebp), %eax
	movl	44(%eax), %eax
	imull	16(%ebp), %eax
	movl	%eax, %ecx
	movl	12(%ebp), %eax
	addl	%ecx, %eax
	addl	%edx, %eax
	movzbl	(%eax), %eax
	movzbl	%al, %eax
L45:
	.loc 1 172 0
	popl	%ebp
	.cfi_restore 5
	.cfi_def_cfa 4, 4
	ret
	.cfi_endproc
LFE22:
	.globl	_bg_GetBBXPixel
	.def	_bg_GetBBXPixel;	.scl	2;	.type	32;	.endef
_bg_GetBBXPixel:
LFB23:
	.loc 1 179 0
	.cfi_startproc
	pushl	%ebp
	.cfi_def_cfa_offset 8
	.cfi_offset 5, -8
	movl	%esp, %ebp
	.cfi_def_cfa_register 5
	subl	$44, %esp
	.loc 1 187 0
	movl	8(%ebp), %eax
	movl	36(%eax), %eax
	addl	%eax, 12(%ebp)
	.loc 1 190 0
	movl	8(%ebp), %eax
	movl	28(%eax), %eax
	movl	%eax, -4(%ebp)
	.loc 1 191 0
	movl	8(%ebp), %eax
	movl	32(%eax), %eax
	movl	%eax, -8(%ebp)
	.loc 1 192 0
	movl	8(%ebp), %eax
	movl	28(%eax), %edx
	movl	8(%ebp), %eax
	movl	20(%eax), %eax
	addl	%edx, %eax
	movl	%eax, -12(%ebp)
	.loc 1 193 0
	movl	8(%ebp), %eax
	movl	32(%eax), %edx
	movl	8(%ebp), %eax
	movl	24(%eax), %eax
	addl	%edx, %eax
	movl	%eax, -16(%ebp)
	.loc 1 195 0
	movl	12(%ebp), %eax
	cmpl	-4(%ebp), %eax
	jge	L50
	.loc 1 196 0
	movl	$0, %eax
	jmp	L51
L50:
	.loc 1 197 0
	movl	12(%ebp), %eax
	cmpl	-12(%ebp), %eax
	jl	L52
	.loc 1 198 0
	movl	$0, %eax
	jmp	L51
L52:
	.loc 1 200 0
	movl	16(%ebp), %eax
	cmpl	-8(%ebp), %eax
	jge	L53
	.loc 1 201 0
	movl	$0, %eax
	jmp	L51
L53:
	.loc 1 202 0
	movl	16(%ebp), %eax
	cmpl	-16(%ebp), %eax
	jl	L54
	.loc 1 203 0
	movl	$0, %eax
	jmp	L51
L54:
	.loc 1 205 0
	movl	12(%ebp), %eax
	subl	-4(%ebp), %eax
	movl	%eax, -20(%ebp)
	.loc 1 206 0
	movl	8(%ebp), %eax
	movl	24(%eax), %eax
	leal	-1(%eax), %edx
	movl	16(%ebp), %eax
	subl	-8(%ebp), %eax
	subl	%eax, %edx
	movl	%edx, %eax
	movl	%eax, -24(%ebp)
	.loc 1 208 0
	movl	-24(%ebp), %eax
	movl	%eax, 8(%esp)
	movl	-20(%ebp), %eax
	movl	%eax, 4(%esp)
	movl	8(%ebp), %eax
	movl	%eax, (%esp)
	call	_bg_GetBitmapPixel
L51:
	.loc 1 210 0
	leave
	.cfi_restore 5
	.cfi_def_cfa 4, 4
	ret
	.cfi_endproc
LFE23:
	.section .rdata,"dr"
	.align 4
LC6:
	.ascii "Encoding %ld, mapped to %ld, w=%ld, h=%ld, x=%ld, y=%ld\12\0"
LC7:
	.ascii "%03d \0"
LC8:
	.ascii " .\0"
LC9:
	.ascii " #\0"
	.text
	.globl	_bg_ShowBitmap
	.def	_bg_ShowBitmap;	.scl	2;	.type	32;	.endef
_bg_ShowBitmap:
LFB24:
	.loc 1 214 0
	.cfi_startproc
	pushl	%ebp
	.cfi_def_cfa_offset 8
	.cfi_offset 5, -8
	movl	%esp, %ebp
	.cfi_def_cfa_register 5
	pushl	%edi
	pushl	%esi
	pushl	%ebx
	subl	$60, %esp
	.cfi_offset 7, -12
	.cfi_offset 6, -16
	.cfi_offset 3, -20
	.loc 1 217 0
	cmpl	$0, 12(%ebp)
	jne	L56
	.loc 1 218 0
	movl	8(%ebp), %eax
	addl	$20, %eax
	movl	%eax, 12(%ebp)
L56:
	.loc 1 220 0
	movl	8(%ebp), %eax
	movl	32(%eax), %edi
	movl	8(%ebp), %eax
	movl	28(%eax), %esi
	movl	8(%ebp), %eax
	movl	24(%eax), %ebx
	movl	8(%ebp), %eax
	movl	20(%eax), %ecx
	movl	8(%ebp), %eax
	movl	8(%eax), %edx
	movl	8(%ebp), %eax
	movl	4(%eax), %eax
	movl	%edi, 24(%esp)
	movl	%esi, 20(%esp)
	movl	%ebx, 16(%esp)
	movl	%ecx, 12(%esp)
	movl	%edx, 8(%esp)
	movl	%eax, 4(%esp)
	movl	$LC6, (%esp)
	call	_printf
	.loc 1 221 0
	movl	12(%ebp), %eax
	movl	12(%eax), %edx
	movl	12(%ebp), %eax
	movl	4(%eax), %eax
	addl	%edx, %eax
	subl	$1, %eax
	movl	%eax, -32(%ebp)
	jmp	L57
L62:
	.loc 1 223 0
	movl	-32(%ebp), %eax
	movl	%eax, 4(%esp)
	movl	$LC7, (%esp)
	call	_printf
	.loc 1 224 0
	movl	12(%ebp), %eax
	movl	8(%eax), %eax
	movl	%eax, -28(%ebp)
	jmp	L58
L61:
	.loc 1 226 0
	movl	-32(%ebp), %eax
	movl	%eax, 8(%esp)
	movl	-28(%ebp), %eax
	movl	%eax, 4(%esp)
	movl	8(%ebp), %eax
	movl	%eax, (%esp)
	call	_bg_GetBBXPixel
	testl	%eax, %eax
	jne	L59
	.loc 1 228 0
	movl	$LC8, (%esp)
	call	_printf
	jmp	L60
L59:
	.loc 1 232 0
	movl	$LC9, (%esp)
	call	_printf
L60:
	.loc 1 224 0 discriminator 2
	addl	$1, -28(%ebp)
L58:
	.loc 1 224 0 is_stmt 0 discriminator 1
	movl	12(%ebp), %eax
	movl	8(%eax), %edx
	movl	12(%ebp), %eax
	movl	(%eax), %eax
	addl	%edx, %eax
	cmpl	-28(%ebp), %eax
	jg	L61
	.loc 1 236 0 is_stmt 1 discriminator 2
	movl	$10, (%esp)
	call	_putchar
	.loc 1 221 0 discriminator 2
	subl	$1, -32(%ebp)
L57:
	.loc 1 221 0 is_stmt 0 discriminator 1
	movl	12(%ebp), %eax
	movl	12(%eax), %eax
	cmpl	-32(%ebp), %eax
	jle	L62
	.loc 1 238 0 is_stmt 1
	nop
	addl	$60, %esp
	popl	%ebx
	.cfi_restore 3
	popl	%esi
	.cfi_restore 6
	popl	%edi
	.cfi_restore 7
	popl	%ebp
	.cfi_restore 5
	.cfi_def_cfa 4, 4
	ret
	.cfi_endproc
LFE24:
	.globl	_bg_IsColZero
	.def	_bg_IsColZero;	.scl	2;	.type	32;	.endef
_bg_IsColZero:
LFB25:
	.loc 1 241 0
	.cfi_startproc
	pushl	%ebp
	.cfi_def_cfa_offset 8
	.cfi_offset 5, -8
	movl	%esp, %ebp
	.cfi_def_cfa_register 5
	subl	$28, %esp
	.loc 1 243 0
	movl	$0, -4(%ebp)
	jmp	L64
L67:
	.loc 1 245 0
	movl	-4(%ebp), %eax
	movl	%eax, 8(%esp)
	movl	12(%ebp), %eax
	movl	%eax, 4(%esp)
	movl	8(%ebp), %eax
	movl	%eax, (%esp)
	call	_bg_GetBitmapPixel
	testl	%eax, %eax
	je	L65
	.loc 1 246 0
	movl	$0, %eax
	jmp	L66
L65:
	.loc 1 243 0 discriminator 2
	addl	$1, -4(%ebp)
L64:
	.loc 1 243 0 is_stmt 0 discriminator 1
	movl	8(%ebp), %eax
	movl	48(%eax), %eax
	cmpl	-4(%ebp), %eax
	jg	L67
	.loc 1 248 0 is_stmt 1
	movl	$1, %eax
L66:
	.loc 1 249 0
	leave
	.cfi_restore 5
	.cfi_def_cfa 4, 4
	ret
	.cfi_endproc
LFE25:
	.globl	_bg_IsRowZero
	.def	_bg_IsRowZero;	.scl	2;	.type	32;	.endef
_bg_IsRowZero:
LFB26:
	.loc 1 252 0
	.cfi_startproc
	pushl	%ebp
	.cfi_def_cfa_offset 8
	.cfi_offset 5, -8
	movl	%esp, %ebp
	.cfi_def_cfa_register 5
	subl	$28, %esp
	.loc 1 254 0
	movl	$0, -4(%ebp)
	jmp	L69
L72:
	.loc 1 256 0
	movl	12(%ebp), %eax
	movl	%eax, 8(%esp)
	movl	-4(%ebp), %eax
	movl	%eax, 4(%esp)
	movl	8(%ebp), %eax
	movl	%eax, (%esp)
	call	_bg_GetBitmapPixel
	testl	%eax, %eax
	je	L70
	.loc 1 257 0
	movl	$0, %eax
	jmp	L71
L70:
	.loc 1 254 0 discriminator 2
	addl	$1, -4(%ebp)
L69:
	.loc 1 254 0 is_stmt 0 discriminator 1
	movl	8(%ebp), %eax
	movl	44(%eax), %eax
	cmpl	-4(%ebp), %eax
	jg	L72
	.loc 1 259 0 is_stmt 1
	movl	$1, %eax
L71:
	.loc 1 260 0
	leave
	.cfi_restore 5
	.cfi_def_cfa 4, 4
	ret
	.cfi_endproc
LFE26:
	.globl	_bg_DeleteFirstCol
	.def	_bg_DeleteFirstCol;	.scl	2;	.type	32;	.endef
_bg_DeleteFirstCol:
LFB27:
	.loc 1 263 0
	.cfi_startproc
	pushl	%ebp
	.cfi_def_cfa_offset 8
	.cfi_offset 5, -8
	movl	%esp, %ebp
	.cfi_def_cfa_register 5
	subl	$40, %esp
	.loc 1 265 0
	movl	$0, -16(%ebp)
	jmp	L74
L77:
	.loc 1 266 0
	movl	$0, -12(%ebp)
	jmp	L75
L76:
	.loc 1 268 0 discriminator 3
	movl	-12(%ebp), %eax
	leal	1(%eax), %edx
	movl	-16(%ebp), %eax
	movl	%eax, 8(%esp)
	movl	%edx, 4(%esp)
	movl	8(%ebp), %eax
	movl	%eax, (%esp)
	call	_bg_GetBitmapPixel
	movl	%eax, 12(%esp)
	movl	-16(%ebp), %eax
	movl	%eax, 8(%esp)
	movl	-12(%ebp), %eax
	movl	%eax, 4(%esp)
	movl	8(%ebp), %eax
	movl	%eax, (%esp)
	call	_bg_SetBitmapPixel
	.loc 1 266 0 discriminator 3
	addl	$1, -12(%ebp)
L75:
	.loc 1 266 0 is_stmt 0 discriminator 1
	movl	-12(%ebp), %eax
	leal	1(%eax), %edx
	movl	8(%ebp), %eax
	movl	44(%eax), %eax
	cmpl	%eax, %edx
	jl	L76
	.loc 1 265 0 is_stmt 1 discriminator 2
	addl	$1, -16(%ebp)
L74:
	.loc 1 265 0 is_stmt 0 discriminator 1
	movl	8(%ebp), %eax
	movl	48(%eax), %eax
	cmpl	-16(%ebp), %eax
	jg	L77
	.loc 1 270 0 is_stmt 1
	nop
	leave
	.cfi_restore 5
	.cfi_def_cfa 4, 4
	ret
	.cfi_endproc
LFE27:
	.globl	_bg_DeleteFirstRow
	.def	_bg_DeleteFirstRow;	.scl	2;	.type	32;	.endef
_bg_DeleteFirstRow:
LFB28:
	.loc 1 273 0
	.cfi_startproc
	pushl	%ebp
	.cfi_def_cfa_offset 8
	.cfi_offset 5, -8
	movl	%esp, %ebp
	.cfi_def_cfa_register 5
	subl	$40, %esp
	.loc 1 275 0
	movl	$0, -16(%ebp)
	jmp	L79
L82:
	.loc 1 276 0
	movl	$0, -12(%ebp)
	jmp	L80
L81:
	.loc 1 278 0 discriminator 3
	movl	-16(%ebp), %eax
	addl	$1, %eax
	movl	%eax, 8(%esp)
	movl	-12(%ebp), %eax
	movl	%eax, 4(%esp)
	movl	8(%ebp), %eax
	movl	%eax, (%esp)
	call	_bg_GetBitmapPixel
	movl	%eax, 12(%esp)
	movl	-16(%ebp), %eax
	movl	%eax, 8(%esp)
	movl	-12(%ebp), %eax
	movl	%eax, 4(%esp)
	movl	8(%ebp), %eax
	movl	%eax, (%esp)
	call	_bg_SetBitmapPixel
	.loc 1 276 0 discriminator 3
	addl	$1, -12(%ebp)
L80:
	.loc 1 276 0 is_stmt 0 discriminator 1
	movl	8(%ebp), %eax
	movl	44(%eax), %eax
	cmpl	-12(%ebp), %eax
	jg	L81
	.loc 1 275 0 is_stmt 1 discriminator 2
	addl	$1, -16(%ebp)
L79:
	.loc 1 275 0 is_stmt 0 discriminator 1
	movl	-16(%ebp), %eax
	leal	1(%eax), %edx
	movl	8(%ebp), %eax
	movl	48(%eax), %eax
	cmpl	%eax, %edx
	jl	L82
	.loc 1 280 0 is_stmt 1
	nop
	leave
	.cfi_restore 5
	.cfi_def_cfa 4, 4
	ret
	.cfi_endproc
LFE28:
	.globl	_bg_ReduceGlyph
	.def	_bg_ReduceGlyph;	.scl	2;	.type	32;	.endef
_bg_ReduceGlyph:
LFB29:
	.loc 1 283 0
	.cfi_startproc
	pushl	%ebp
	.cfi_def_cfa_offset 8
	.cfi_offset 5, -8
	movl	%esp, %ebp
	.cfi_def_cfa_register 5
	subl	$24, %esp
	.loc 1 292 0
	jmp	L84
L87:
	.loc 1 294 0
	movl	8(%ebp), %eax
	movl	20(%eax), %eax
	subl	$1, %eax
	movl	%eax, 4(%esp)
	movl	8(%ebp), %eax
	movl	%eax, (%esp)
	call	_bg_IsColZero
	testl	%eax, %eax
	je	L100
	.loc 1 296 0
	movl	8(%ebp), %eax
	movl	20(%eax), %eax
	leal	-1(%eax), %edx
	movl	8(%ebp), %eax
	movl	%edx, 20(%eax)
L84:
	.loc 1 292 0
	movl	8(%ebp), %eax
	movl	20(%eax), %eax
	testl	%eax, %eax
	jg	L87
	jmp	L88
L100:
	.loc 1 295 0
	nop
	.loc 1 299 0
	jmp	L88
L91:
	.loc 1 301 0
	movl	8(%ebp), %eax
	movl	24(%eax), %eax
	subl	$1, %eax
	movl	%eax, 4(%esp)
	movl	8(%ebp), %eax
	movl	%eax, (%esp)
	call	_bg_IsRowZero
	testl	%eax, %eax
	je	L101
	.loc 1 303 0
	movl	8(%ebp), %eax
	movl	32(%eax), %eax
	leal	1(%eax), %edx
	movl	8(%ebp), %eax
	movl	%edx, 32(%eax)
	.loc 1 304 0
	movl	8(%ebp), %eax
	movl	24(%eax), %eax
	leal	-1(%eax), %edx
	movl	8(%ebp), %eax
	movl	%edx, 24(%eax)
L88:
	.loc 1 299 0
	movl	8(%ebp), %eax
	movl	24(%eax), %eax
	testl	%eax, %eax
	jg	L91
	jmp	L92
L101:
	.loc 1 302 0
	nop
	.loc 1 307 0
	jmp	L92
L95:
	.loc 1 309 0
	movl	$0, 4(%esp)
	movl	8(%ebp), %eax
	movl	%eax, (%esp)
	call	_bg_IsColZero
	testl	%eax, %eax
	je	L102
	.loc 1 311 0
	movl	8(%ebp), %eax
	movl	%eax, (%esp)
	call	_bg_DeleteFirstCol
	.loc 1 312 0
	movl	8(%ebp), %eax
	movl	28(%eax), %eax
	leal	1(%eax), %edx
	movl	8(%ebp), %eax
	movl	%edx, 28(%eax)
	.loc 1 313 0
	movl	8(%ebp), %eax
	movl	20(%eax), %eax
	leal	-1(%eax), %edx
	movl	8(%ebp), %eax
	movl	%edx, 20(%eax)
L92:
	.loc 1 307 0
	movl	8(%ebp), %eax
	movl	20(%eax), %eax
	testl	%eax, %eax
	jg	L95
	jmp	L96
L102:
	.loc 1 310 0
	nop
	.loc 1 316 0
	jmp	L96
L99:
	.loc 1 318 0
	movl	$0, 4(%esp)
	movl	8(%ebp), %eax
	movl	%eax, (%esp)
	call	_bg_IsRowZero
	testl	%eax, %eax
	je	L103
	.loc 1 320 0
	movl	8(%ebp), %eax
	movl	%eax, (%esp)
	call	_bg_DeleteFirstRow
	.loc 1 321 0
	movl	8(%ebp), %eax
	movl	24(%eax), %eax
	leal	-1(%eax), %edx
	movl	8(%ebp), %eax
	movl	%edx, 24(%eax)
L96:
	.loc 1 316 0
	movl	8(%ebp), %eax
	movl	24(%eax), %eax
	testl	%eax, %eax
	jg	L99
	.loc 1 324 0
	jmp	L98
L103:
	.loc 1 319 0
	nop
L98:
	.loc 1 324 0
	nop
	leave
	.cfi_restore 5
	.cfi_def_cfa 4, 4
	ret
	.cfi_endproc
LFE29:
	.globl	_bg_Max
	.def	_bg_Max;	.scl	2;	.type	32;	.endef
_bg_Max:
LFB30:
	.loc 1 330 0
	.cfi_startproc
	pushl	%ebp
	.cfi_def_cfa_offset 8
	.cfi_offset 5, -8
	movl	%esp, %ebp
	.cfi_def_cfa_register 5
	subl	$48, %esp
	.loc 1 331 0
	movl	$0, -4(%ebp)
	.loc 1 343 0
	movl	8(%ebp), %eax
	movl	28(%eax), %eax
	movl	%eax, -24(%ebp)
	.loc 1 344 0
	movl	8(%ebp), %eax
	movl	32(%eax), %eax
	movl	%eax, -28(%ebp)
	.loc 1 345 0
	movl	8(%ebp), %eax
	movl	28(%eax), %edx
	movl	8(%ebp), %eax
	movl	20(%eax), %eax
	addl	%edx, %eax
	movl	%eax, -32(%ebp)
	.loc 1 346 0
	movl	8(%ebp), %eax
	movl	32(%eax), %edx
	movl	8(%ebp), %eax
	movl	24(%eax), %eax
	addl	%edx, %eax
	movl	%eax, -36(%ebp)
	.loc 1 349 0
	movl	12(%ebp), %eax
	movl	8(%eax), %eax
	movl	%eax, -8(%ebp)
	.loc 1 350 0
	movl	12(%ebp), %eax
	movl	12(%eax), %eax
	movl	%eax, -16(%ebp)
	.loc 1 351 0
	movl	12(%ebp), %eax
	movl	8(%eax), %edx
	movl	12(%ebp), %eax
	movl	(%eax), %eax
	addl	%edx, %eax
	movl	%eax, -12(%ebp)
	.loc 1 352 0
	movl	12(%ebp), %eax
	movl	12(%eax), %edx
	movl	12(%ebp), %eax
	movl	4(%eax), %eax
	addl	%edx, %eax
	movl	%eax, -20(%ebp)
	.loc 1 355 0
	movl	-8(%ebp), %eax
	cmpl	-24(%ebp), %eax
	jle	L105
	.loc 1 357 0
	movl	-24(%ebp), %eax
	movl	%eax, -8(%ebp)
	.loc 1 358 0
	movl	$3, -4(%ebp)
L105:
	.loc 1 361 0
	movl	8(%ebp), %eax
	movl	12(%eax), %eax
	cmpl	-8(%ebp), %eax
	jge	L106
	.loc 1 363 0
	movl	8(%ebp), %eax
	movl	12(%eax), %eax
	movl	%eax, -8(%ebp)
	.loc 1 364 0
	movl	$3, -4(%ebp)
L106:
	.loc 1 368 0
	movl	-12(%ebp), %eax
	cmpl	-32(%ebp), %eax
	jge	L107
	.loc 1 370 0
	movl	$1, -4(%ebp)
	.loc 1 371 0
	movl	-32(%ebp), %eax
	movl	%eax, -12(%ebp)
L107:
	.loc 1 374 0
	movl	-16(%ebp), %eax
	cmpl	-28(%ebp), %eax
	jle	L108
	.loc 1 376 0
	movl	$4, -4(%ebp)
	.loc 1 377 0
	movl	-28(%ebp), %eax
	movl	%eax, -16(%ebp)
L108:
	.loc 1 379 0
	movl	-20(%ebp), %eax
	cmpl	-36(%ebp), %eax
	jge	L109
	.loc 1 381 0
	movl	$2, -4(%ebp)
	.loc 1 382 0
	movl	-36(%ebp), %eax
	movl	%eax, -20(%ebp)
L109:
	.loc 1 386 0
	movl	12(%ebp), %eax
	movl	-8(%ebp), %edx
	movl	%edx, 8(%eax)
	.loc 1 387 0
	movl	12(%ebp), %eax
	movl	-16(%ebp), %edx
	movl	%edx, 12(%eax)
	.loc 1 388 0
	movl	12(%ebp), %eax
	movl	8(%eax), %eax
	movl	-12(%ebp), %edx
	subl	%eax, %edx
	movl	12(%ebp), %eax
	movl	%edx, (%eax)
	.loc 1 389 0
	movl	12(%ebp), %eax
	movl	12(%eax), %eax
	movl	-20(%ebp), %edx
	subl	%eax, %edx
	movl	12(%ebp), %eax
	movl	%edx, 4(%eax)
	.loc 1 391 0
	movl	-4(%ebp), %eax
	.loc 1 392 0
	leave
	.cfi_restore 5
	.cfi_def_cfa 4, 4
	ret
	.cfi_endproc
LFE30:
	.section .rdata,"dr"
	.align 4
___func__.3328:
	.ascii "bg_AddTargetBits\0"
	.align 4
___func__.3353:
	.ascii "bg_SetBitmapPixel\0"
	.text
Letext0:
	.file 2 "/usr/lib/gcc/i686-pc-msys/6.4.0/include/stddef.h"
	.file 3 "/usr/include/machine/_default_types.h"
	.file 4 "/usr/include/sys/lock.h"
	.file 5 "/usr/include/sys/_types.h"
	.file 6 "/usr/include/sys/reent.h"
	.file 7 "/usr/include/stdlib.h"
	.file 8 "/usr/include/sys/_stdint.h"
	.file 9 "bdf_glyph.h"