	.file	"main.c"
	.text
Ltext0:
	.globl	_get_str_arg
	.def	_get_str_arg;	.scl	2;	.type	32;	.endef
_get_str_arg:
LFB12:
	.file 1 "main.c"
	.loc 1 11 0
	.cfi_startproc
	pushl	%ebp
	.cfi_def_cfa_offset 8
	.cfi_offset 5, -8
	movl	%esp, %ebp
	.cfi_def_cfa_register 5
	.loc 1 12 0
	movl	8(%ebp), %eax
	movl	(%eax), %eax
	movl	(%eax), %eax
	movzbl	(%eax), %eax
	cmpb	$45, %al
	jne	L2
	.loc 1 14 0
	movl	8(%ebp), %eax
	movl	(%eax), %eax
	movl	(%eax), %eax
	addl	$1, %eax
	movzbl	(%eax), %eax
	movsbl	%al, %eax
	cmpl	12(%ebp), %eax
	jne	L2
	.loc 1 16 0
	movl	8(%ebp), %eax
	movl	(%eax), %eax
	movl	(%eax), %eax
	addl	$2, %eax
	movzbl	(%eax), %eax
	testb	%al, %al
	jne	L3
	.loc 1 18 0
	movl	8(%ebp), %eax
	movl	(%eax), %eax
	leal	4(%eax), %edx
	movl	8(%ebp), %eax
	movl	%edx, (%eax)
	.loc 1 19 0
	movl	8(%ebp), %eax
	movl	(%eax), %eax
	movl	(%eax), %edx
	movl	16(%ebp), %eax
	movl	%edx, (%eax)
	jmp	L4
L3:
	.loc 1 23 0
	movl	8(%ebp), %eax
	movl	(%eax), %eax
	movl	(%eax), %eax
	leal	2(%eax), %edx
	movl	16(%ebp), %eax
	movl	%edx, (%eax)
L4:
	.loc 1 25 0
	movl	8(%ebp), %eax
	movl	(%eax), %eax
	leal	4(%eax), %edx
	movl	8(%ebp), %eax
	movl	%edx, (%eax)
	.loc 1 26 0
	movl	$1, %eax
	jmp	L5
L2:
	.loc 1 29 0
	movl	$0, %eax
L5:
	.loc 1 30 0
	popl	%ebp
	.cfi_restore 5
	.cfi_def_cfa 4, 4
	ret
	.cfi_endproc
LFE12:
	.globl	_get_num_arg
	.def	_get_num_arg;	.scl	2;	.type	32;	.endef
_get_num_arg:
LFB13:
	.loc 1 34 0
	.cfi_startproc
	pushl	%ebp
	.cfi_def_cfa_offset 8
	.cfi_offset 5, -8
	movl	%esp, %ebp
	.cfi_def_cfa_register 5
	subl	$24, %esp
	.loc 1 35 0
	movl	8(%ebp), %eax
	movl	(%eax), %eax
	movl	(%eax), %eax
	movzbl	(%eax), %eax
	cmpb	$45, %al
	jne	L7
	.loc 1 37 0
	movl	8(%ebp), %eax
	movl	(%eax), %eax
	movl	(%eax), %eax
	addl	$1, %eax
	movzbl	(%eax), %eax
	movsbl	%al, %eax
	cmpl	12(%ebp), %eax
	jne	L7
	.loc 1 40 0
	movl	8(%ebp), %eax
	movl	(%eax), %eax
	movl	(%eax), %eax
	addl	$2, %eax
	movzbl	(%eax), %eax
	testb	%al, %al
	jne	L8
	.loc 1 42 0
	movl	8(%ebp), %eax
	movl	(%eax), %eax
	addl	$4, %eax
	movl	(%eax), %eax
	testl	%eax, %eax
	je	L10
	.loc 1 44 0
	movl	8(%ebp), %eax
	movl	(%eax), %eax
	leal	4(%eax), %edx
	movl	8(%ebp), %eax
	movl	%edx, (%eax)
	.loc 1 45 0
	movl	8(%ebp), %eax
	movl	(%eax), %eax
	movl	(%eax), %eax
	movl	$10, 8(%esp)
	movl	$0, 4(%esp)
	movl	%eax, (%esp)
	call	_strtoul
	movl	%eax, %edx
	movl	16(%ebp), %eax
	movl	%edx, (%eax)
	jmp	L10
L8:
	.loc 1 50 0
	movl	8(%ebp), %eax
	movl	(%eax), %eax
	movl	(%eax), %eax
	addl	$2, %eax
	movl	$10, 8(%esp)
	movl	$0, 4(%esp)
	movl	%eax, (%esp)
	call	_strtoul
	movl	%eax, %edx
	movl	16(%ebp), %eax
	movl	%edx, (%eax)
L10:
	.loc 1 52 0
	movl	8(%ebp), %eax
	movl	(%eax), %eax
	leal	4(%eax), %edx
	movl	8(%ebp), %eax
	movl	%edx, (%eax)
	.loc 1 53 0
	movl	$1, %eax
	jmp	L11
L7:
	.loc 1 56 0
	movl	$0, %eax
L11:
	.loc 1 57 0
	leave
	.cfi_restore 5
	.cfi_def_cfa 4, 4
	ret
	.cfi_endproc
LFE13:
	.globl	_is_arg
	.def	_is_arg;	.scl	2;	.type	32;	.endef
_is_arg:
LFB14:
	.loc 1 60 0
	.cfi_startproc
	pushl	%ebp
	.cfi_def_cfa_offset 8
	.cfi_offset 5, -8
	movl	%esp, %ebp
	.cfi_def_cfa_register 5
	.loc 1 61 0
	movl	8(%ebp), %eax
	movl	(%eax), %eax
	movl	(%eax), %eax
	movzbl	(%eax), %eax
	cmpb	$45, %al
	jne	L13
	.loc 1 63 0
	movl	8(%ebp), %eax
	movl	(%eax), %eax
	movl	(%eax), %eax
	addl	$1, %eax
	movzbl	(%eax), %eax
	movsbl	%al, %eax
	cmpl	12(%ebp), %eax
	jne	L13
	.loc 1 65 0
	movl	8(%ebp), %eax
	movl	(%eax), %eax
	leal	4(%eax), %edx
	movl	8(%ebp), %eax
	movl	%edx, (%eax)
	.loc 1 66 0
	movl	$1, %eax
	jmp	L14
L13:
	.loc 1 69 0
	movl	$0, %eax
L14:
	.loc 1 70 0
	popl	%ebp
	.cfi_restore 5
	.cfi_def_cfa 4, 4
	ret
	.cfi_endproc
LFE14:
	.section .rdata,"dr"
LC0:
	.ascii "bdfconv [options] filename\0"
LC1:
	.ascii "-h          Display this help\0"
	.align 4
LC2:
	.ascii "-v          Print log messages\0"
	.align 4
LC3:
	.ascii "-b <n>      Font build mode, 0: proportional, 1: common height, 2: monospace, 3: multiple of 8\0"
	.align 4
LC4:
	.ascii "-f <n>      Font format, 0: ucglib font, 1: u8g2 font, 2: u8g2 uncompressed 8x8 font (enforces -b 3)\0"
	.align 4
LC5:
	.ascii "-m 'map'    Unicode ASCII mapping\0"
LC6:
	.ascii "-o <file>   C output file\0"
	.align 4
LC7:
	.ascii "-n <name>   C indentifier (font name)\0"
	.align 4
LC8:
	.ascii "-d <file>   Overview picture: Enable generation of bdf.tga and assign BDF font <file> for description\0"
	.align 4
LC9:
	.ascii "-l <margin> Overview picture: Set left margin\0"
	.align 4
LC10:
	.ascii "-a          Overview picture: Additional font information (background, orange&blue dot)\0"
	.align 4
LC11:
	.ascii "-t          Overview picture: Test string (Woven silk pyjamas exchanged for blue quartz.)\0"
LC12:
	.ascii "-r          Runtime test\0"
	.align 4
LC13:
	.ascii "map := <mapcmd> { \",\" <mapcmd> }\0"
	.align 4
LC14:
	.ascii "mapcmd := <default> | <maprange> | <exclude>\0"
LC15:
	.ascii "default := \"*\"\0"
	.align 4
LC16:
	.ascii "maprange := <range> [  \">\" <addexpr> ]        Move specified glyph <range> to target code <num>\0"
LC17:
	.ascii "exclude := \"~\" <range> \0"
	.align 4
LC18:
	.ascii "range := <addexpr> [ \"-\" <addexpr> ]          Select glyphs within specified range\0"
	.align 4
LC19:
	.ascii "addexpr := <mulexpr> [ \"+\" <mulexpr> ]\0"
	.align 4
LC20:
	.ascii "mulexpr := <num> [ \"*\" <num> ]\0"
LC21:
	.ascii "num := <hexnum> | <decnum>\0"
	.align 4
LC22:
	.ascii "hexnum := \"$\" <hexdigit> { <hexdigit> }\0"
	.align 4
LC23:
	.ascii "decnum := <decdigit> { <decdigit> }\0"
	.align 4
LC24:
	.ascii "decdigit := \"0\" | \"1\" | \"2\" | \"3\" | \"4\" | \"5\" | \"6\" | \"7\" | \"8\" | \"9\"\0"
	.align 4
LC25:
	.ascii "hexdigit := \"a\" | \"b\" | \"c\" | \"d\" | \"e\" | \"f\" | \"A\" | \"B\" | \"C\" | \"D\" | \"E\" | \"F\" | <decdigit>\0"
	.align 4
LC26:
	.ascii "{ } zero, one ore more, [ ] zero or once, | alternative\0"
LC27:
	.ascii "example:\0"
	.align 4
LC28:
	.ascii "  -m '32-255'     select gylphs from encoding 32 to 255\0"
	.align 4
LC29:
	.ascii "  -m '32-255,~64' select gylphs from encoding 32 to 255, exclude '@'\0"
	.align 4
LC30:
	.ascii "  -m '32,48-57'   select space, '1', '2', ... '9'\0"
LC31:
	.ascii "build modes:\0"
	.align 4
LC32:
	.ascii " -b 0: Most compact, glyph bitmap is minimal\0"
	.align 4
LC33:
	.ascii " -b 1: Like -b 0, but glyph bitmap is extended to the height of the largest glyph within the selected glyph list.\0"
	.align 4
LC34:
	.ascii "       Also the width of the gylphs is extended to cover the delta x advance.\0"
	.align 4
LC35:
	.ascii " -b 2: Like -b 1, but glyph width is set to the width of the largest glyph within the selected gylph list.\0"
	.align 4
LC36:
	.ascii " -b 3: Like -b 2, but width and height are forced to be a multiple of 8.\0"
	.text
	.globl	_help
	.def	_help;	.scl	2;	.type	32;	.endef
_help:
LFB15:
	.loc 1 74 0
	.cfi_startproc
	pushl	%ebp
	.cfi_def_cfa_offset 8
	.cfi_offset 5, -8
	movl	%esp, %ebp
	.cfi_def_cfa_register 5
	subl	$24, %esp
	.loc 1 75 0
	movl	$LC0, (%esp)
	call	_puts
	.loc 1 76 0
	movl	$LC1, (%esp)
	call	_puts
	.loc 1 77 0
	movl	$LC2, (%esp)
	call	_puts
	.loc 1 78 0
	movl	$LC3, (%esp)
	call	_puts
	.loc 1 79 0
	movl	$LC4, (%esp)
	call	_puts
	.loc 1 80 0
	movl	$LC5, (%esp)
	call	_puts
	.loc 1 81 0
	movl	$LC6, (%esp)
	call	_puts
	.loc 1 82 0
	movl	$LC7, (%esp)
	call	_puts
	.loc 1 83 0
	movl	$LC8, (%esp)
	call	_puts
	.loc 1 84 0
	movl	$LC9, (%esp)
	call	_puts
	.loc 1 85 0
	movl	$LC10, (%esp)
	call	_puts
	.loc 1 86 0
	movl	$LC11, (%esp)
	call	_puts
	.loc 1 87 0
	movl	$LC12, (%esp)
	call	_puts
	.loc 1 88 0
	movl	$10, (%esp)
	call	_putchar
	.loc 1 90 0
	movl	$LC13, (%esp)
	call	_puts
	.loc 1 91 0
	movl	$LC14, (%esp)
	call	_puts
	.loc 1 92 0
	movl	$LC15, (%esp)
	call	_puts
	.loc 1 93 0
	movl	$LC16, (%esp)
	call	_puts
	.loc 1 94 0
	movl	$LC17, (%esp)
	call	_puts
	.loc 1 95 0
	movl	$LC18, (%esp)
	call	_puts
	.loc 1 96 0
	movl	$LC19, (%esp)
	call	_puts
	.loc 1 97 0
	movl	$LC20, (%esp)
	call	_puts
	.loc 1 98 0
	movl	$LC21, (%esp)
	call	_puts
	.loc 1 99 0
	movl	$LC22, (%esp)
	call	_puts
	.loc 1 100 0
	movl	$LC23, (%esp)
	call	_puts
	.loc 1 101 0
	movl	$LC24, (%esp)
	call	_puts
	.loc 1 102 0
	movl	$LC25, (%esp)
	call	_puts
	.loc 1 104 0
	movl	$LC26, (%esp)
	call	_puts
	.loc 1 106 0
	movl	$LC27, (%esp)
	call	_puts
	.loc 1 107 0
	movl	$LC28, (%esp)
	call	_puts
	.loc 1 108 0
	movl	$LC29, (%esp)
	call	_puts
	.loc 1 109 0
	movl	$LC30, (%esp)
	call	_puts
	.loc 1 110 0
	movl	$LC31, (%esp)
	call	_puts
	.loc 1 111 0
	movl	$LC32, (%esp)
	call	_puts
	.loc 1 112 0
	movl	$LC33, (%esp)
	call	_puts
	.loc 1 113 0
	movl	$LC34, (%esp)
	call	_puts
	.loc 1 114 0
	movl	$LC35, (%esp)
	call	_puts
	.loc 1 115 0
	movl	$LC36, (%esp)
	call	_puts
	.loc 1 117 0
	nop
	leave
	.cfi_restore 5
	.cfi_def_cfa 4, 4
	ret
	.cfi_endproc
LFE15:
	.globl	_left_margin
	.data
	.align 4
_left_margin:
	.long	1
	.globl	_build_bbx_mode
	.bss
	.align 4
_build_bbx_mode:
	.space 4
	.globl	_font_format
	.align 4
_font_format:
	.space 4
	.globl	_font_picture_extra_info
	.align 4
_font_picture_extra_info:
	.space 4
	.globl	_font_picture_test_string
	.align 4
_font_picture_test_string:
	.space 4
	.globl	_runtime_test
	.align 4
_runtime_test:
	.space 4
	.globl	_c_filename
	.align 4
_c_filename:
	.space 4
	.globl	_target_fontname
	.section .rdata,"dr"
LC37:
	.ascii "bdf_font\0"
	.data
	.align 4
_target_fontname:
	.long	LC37
	.text
	.globl	_tga_get_line_height
	.def	_tga_get_line_height;	.scl	2;	.type	32;	.endef
_tga_get_line_height:
LFB16:
	.loc 1 133 0
	.cfi_startproc
	pushl	%ebp
	.cfi_def_cfa_offset 8
	.cfi_offset 5, -8
	movl	%esp, %ebp
	.cfi_def_cfa_register 5
	subl	$40, %esp
	.loc 1 135 0
	movl	8(%ebp), %eax
	movl	1176(%eax), %eax
	movl	%eax, (%esp)
	call	_tga_set_font
	.loc 1 136 0
	call	_tga_get_char_height
	movl	%eax, -12(%ebp)
	.loc 1 137 0
	movl	12(%ebp), %eax
	movl	1176(%eax), %eax
	movl	%eax, (%esp)
	call	_tga_set_font
	.loc 1 138 0
	call	_tga_get_char_height
	cmpl	-12(%ebp), %eax
	jbe	L17
	.loc 1 139 0
	call	_tga_get_char_height
	jmp	L18
L17:
	.loc 1 140 0
	movl	-12(%ebp), %eax
L18:
	.loc 1 141 0
	leave
	.cfi_restore 5
	.cfi_def_cfa 4, 4
	ret
	.cfi_endproc
LFE16:
	.section .rdata,"dr"
LC38:
	.ascii "%3ld/0x%02lx\0"
	.text
	.globl	_tga_draw_font_line
	.def	_tga_draw_font_line;	.scl	2;	.type	32;	.endef
_tga_draw_font_line:
LFB17:
	.loc 1 144 0
	.cfi_startproc
	pushl	%ebp
	.cfi_def_cfa_offset 8
	.cfi_offset 5, -8
	movl	%esp, %ebp
	.cfi_def_cfa_register 5
	pushl	%esi
	pushl	%ebx
	subl	$80, %esp
	.cfi_offset 6, -12
	.cfi_offset 3, -16
	.loc 1 150 0
	movl	$1, -20(%ebp)
	.loc 1 151 0
	movl	$0, -12(%ebp)
	jmp	L20
L23:
	.loc 1 153 0
	movl	-12(%ebp), %eax
	movl	%eax, %edx
	movl	12(%ebp), %eax
	addl	%edx, %eax
	movzbl	%al, %eax
	movl	%eax, (%esp)
	call	_tga_get_glyph_data
	testl	%eax, %eax
	je	L21
	.loc 1 154 0
	movl	$0, -20(%ebp)
L21:
	.loc 1 151 0 discriminator 2
	addl	$1, -12(%ebp)
L20:
	.loc 1 151 0 is_stmt 0 discriminator 1
	cmpl	$15, -12(%ebp)
	jg	L22
	.loc 1 151 0 discriminator 3
	cmpl	$0, -20(%ebp)
	jne	L23
L22:
	.loc 1 157 0 is_stmt 1
	cmpl	$0, -20(%ebp)
	je	L24
	.loc 1 158 0
	movl	$0, %eax
	jmp	L29
L24:
	.loc 1 160 0
	movl	12(%ebp), %eax
	movl	%eax, 12(%esp)
	movl	12(%ebp), %eax
	movl	%eax, 8(%esp)
	movl	$LC38, 4(%esp)
	leal	-52(%ebp), %eax
	movl	%eax, (%esp)
	call	_sprintf
	.loc 1 162 0
	movl	_left_margin, %eax
	movl	%eax, -16(%ebp)
	.loc 1 163 0
	cmpl	$0, 16(%ebp)
	je	L26
	.loc 1 165 0
	movl	16(%ebp), %eax
	movl	1176(%eax), %eax
	testl	%eax, %eax
	je	L26
	.loc 1 167 0
	movl	16(%ebp), %eax
	movl	1176(%eax), %eax
	movl	%eax, (%esp)
	call	_tga_set_font
	.loc 1 168 0
	movl	$0, 16(%esp)
	movl	$0, 12(%esp)
	leal	-52(%ebp), %eax
	movl	%eax, 8(%esp)
	movl	8(%ebp), %eax
	movl	%eax, 4(%esp)
	movl	-16(%ebp), %eax
	movl	%eax, (%esp)
	call	_tga_draw_string
	addl	%eax, -16(%ebp)
L26:
	.loc 1 171 0
	addl	$4, -16(%ebp)
	.loc 1 173 0
	movl	20(%ebp), %eax
	movl	1176(%eax), %eax
	movl	%eax, (%esp)
	call	_tga_set_font
	.loc 1 174 0
	movl	$0, -12(%ebp)
	jmp	L27
L28:
	.loc 1 176 0 discriminator 3
	movl	_font_picture_extra_info, %esi
	movl	12(%ebp), %eax
	movl	%eax, %edx
	movl	-12(%ebp), %eax
	addl	%edx, %eax
	movzbl	%al, %ebx
	call	_tga_get_char_width
	addl	$2, %eax
	imull	-12(%ebp), %eax
	movl	%eax, %edx
	movl	-16(%ebp), %eax
	addl	%eax, %edx
	movl	%esi, 12(%esp)
	movl	%ebx, 8(%esp)
	movl	8(%ebp), %eax
	movl	%eax, 4(%esp)
	movl	%edx, (%esp)
	call	_tga_draw_glyph
	.loc 1 174 0 discriminator 3
	addl	$1, -12(%ebp)
L27:
	.loc 1 174 0 is_stmt 0 discriminator 1
	cmpl	$15, -12(%ebp)
	jle	L28
	.loc 1 179 0 is_stmt 1
	movl	_left_margin, %edx
	movl	-16(%ebp), %eax
	leal	(%edx,%eax), %ebx
	call	_tga_get_char_width
	addl	$2, %eax
	sall	$4, %eax
	addl	%ebx, %eax
L29:
	.loc 1 180 0 discriminator 1
	addl	$80, %esp
	popl	%ebx
	.cfi_restore 3
	popl	%esi
	.cfi_restore 6
	popl	%ebp
	.cfi_restore 5
	.cfi_def_cfa 4, 4
	ret
	.cfi_endproc
LFE17:
	.section .rdata,"dr"
LC39:
	.ascii "Max width %u, max height %u\0"
LC40:
	.ascii "'A' height %d, font size %d \0"
	.text
	.globl	_tga_draw_font_info
	.def	_tga_draw_font_info;	.scl	2;	.type	32;	.endef
_tga_draw_font_info:
LFB18:
	.loc 1 183 0
	.cfi_startproc
	pushl	%ebp
	.cfi_def_cfa_offset 8
	.cfi_offset 5, -8
	movl	%esp, %ebp
	.cfi_def_cfa_register 5
	pushl	%ebx
	subl	$52, %esp
	.cfi_offset 3, -12
	.loc 1 188 0
	movl	$0, -12(%ebp)
	.loc 1 189 0
	movl	$65, 4(%esp)
	movl	20(%ebp), %eax
	movl	%eax, (%esp)
	call	_bf_GetIndexByEncoding
	movl	%eax, -16(%ebp)
	.loc 1 190 0
	cmpl	$0, -16(%ebp)
	js	L31
	.loc 1 192 0
	movl	20(%ebp), %eax
	movl	4(%eax), %eax
	movl	-16(%ebp), %edx
	sall	$2, %edx
	addl	%edx, %eax
	movl	(%eax), %eax
	movl	24(%eax), %edx
	movl	20(%ebp), %eax
	movl	4(%eax), %eax
	movl	-16(%ebp), %ecx
	sall	$2, %ecx
	addl	%ecx, %eax
	movl	(%eax), %eax
	movl	32(%eax), %eax
	addl	%edx, %eax
	movl	%eax, -12(%ebp)
L31:
	.loc 1 195 0
	cmpl	$0, 16(%ebp)
	je	L32
	.loc 1 197 0
	movl	16(%ebp), %eax
	movl	1176(%eax), %eax
	testl	%eax, %eax
	je	L32
	.loc 1 200 0
	movl	16(%ebp), %eax
	movl	1176(%eax), %eax
	movl	%eax, (%esp)
	call	_tga_set_font
	.loc 1 202 0
	call	_tga_get_char_height
	addl	$1, %eax
	addl	%eax, 8(%ebp)
	.loc 1 203 0
	movl	_left_margin, %eax
	movl	%eax, -20(%ebp)
	.loc 1 204 0
	movl	$0, 16(%esp)
	movl	$0, 12(%esp)
	movl	12(%ebp), %eax
	movl	%eax, 8(%esp)
	movl	8(%ebp), %eax
	movl	%eax, 4(%esp)
	movl	-20(%ebp), %eax
	movl	%eax, (%esp)
	call	_tga_draw_string
	addl	%eax, -20(%ebp)
	.loc 1 206 0
	call	_tga_get_char_height
	addl	$1, %eax
	addl	%eax, 8(%ebp)
	.loc 1 207 0
	call	_tga_get_char_height
	movl	%eax, %ebx
	call	_tga_get_char_width
	movl	%ebx, 12(%esp)
	movl	%eax, 8(%esp)
	movl	$LC39, 4(%esp)
	movl	$_s.3888, (%esp)
	call	_sprintf
	.loc 1 208 0
	movl	_left_margin, %eax
	movl	%eax, -20(%ebp)
	.loc 1 209 0
	movl	$0, 16(%esp)
	movl	$0, 12(%esp)
	movl	$_s.3888, 8(%esp)
	movl	8(%ebp), %eax
	movl	%eax, 4(%esp)
	movl	-20(%ebp), %eax
	movl	%eax, (%esp)
	call	_tga_draw_string
	addl	%eax, -20(%ebp)
	.loc 1 211 0
	call	_tga_get_char_height
	addl	$1, %eax
	addl	%eax, 8(%ebp)
	.loc 1 212 0
	movl	20(%ebp), %eax
	movl	1184(%eax), %eax
	movl	%eax, 12(%esp)
	movl	-12(%ebp), %eax
	movl	%eax, 8(%esp)
	movl	$LC40, 4(%esp)
	movl	$_s.3888, (%esp)
	call	_sprintf
	.loc 1 213 0
	movl	_left_margin, %eax
	movl	%eax, -20(%ebp)
	.loc 1 214 0
	movl	$0, 16(%esp)
	movl	$0, 12(%esp)
	movl	$_s.3888, 8(%esp)
	movl	8(%ebp), %eax
	movl	%eax, 4(%esp)
	movl	-20(%ebp), %eax
	movl	%eax, (%esp)
	call	_tga_draw_string
	addl	%eax, -20(%ebp)
	.loc 1 215 0
	call	_tga_get_char_height
	leal	1(%eax), %edx
	movl	%edx, %eax
	addl	%eax, %eax
	addl	%edx, %eax
	jmp	L33
L32:
	.loc 1 218 0
	movl	$0, %eax
L33:
	.loc 1 219 0
	addl	$52, %esp
	popl	%ebx
	.cfi_restore 3
	popl	%ebp
	.cfi_restore 5
	.cfi_def_cfa 4, 4
	ret
	.cfi_endproc
LFE18:
	.section .rdata,"dr"
	.align 4
LC41:
	.ascii "Woven silk pyjamas exchanged for blue quartz.\0"
	.text
	.globl	_tga_draw_font
	.def	_tga_draw_font;	.scl	2;	.type	32;	.endef
_tga_draw_font:
LFB19:
	.loc 1 223 0
	.cfi_startproc
	pushl	%ebp
	.cfi_def_cfa_offset 8
	.cfi_offset 5, -8
	movl	%esp, %ebp
	.cfi_def_cfa_register 5
	subl	$56, %esp
	.loc 1 226 0
	movl	$0, -16(%ebp)
	.loc 1 228 0
	movl	20(%ebp), %eax
	movl	%eax, 12(%esp)
	movl	16(%ebp), %eax
	movl	%eax, 8(%esp)
	movl	12(%ebp), %eax
	movl	%eax, 4(%esp)
	movl	8(%ebp), %eax
	movl	%eax, (%esp)
	call	_tga_draw_font_info
	addl	%eax, 8(%ebp)
	.loc 1 230 0
	movl	20(%ebp), %eax
	movl	%eax, 4(%esp)
	movl	16(%ebp), %eax
	movl	%eax, (%esp)
	call	_tga_get_line_height
	addl	$1, %eax
	addl	%eax, 8(%ebp)
	.loc 1 233 0
	movl	$0, -12(%ebp)
	jmp	L35
L38:
	.loc 1 235 0
	movl	20(%ebp), %eax
	movl	%eax, 12(%esp)
	movl	16(%ebp), %eax
	movl	%eax, 8(%esp)
	movl	-12(%ebp), %eax
	movl	%eax, 4(%esp)
	movl	8(%ebp), %eax
	movl	%eax, (%esp)
	call	_tga_draw_font_line
	movl	%eax, -20(%ebp)
	.loc 1 236 0
	cmpl	$0, -20(%ebp)
	je	L36
	.loc 1 238 0
	movl	-16(%ebp), %eax
	cmpl	-20(%ebp), %eax
	jnb	L37
	.loc 1 239 0
	movl	-20(%ebp), %eax
	movl	%eax, -16(%ebp)
L37:
	.loc 1 240 0
	movl	20(%ebp), %eax
	movl	%eax, 4(%esp)
	movl	16(%ebp), %eax
	movl	%eax, (%esp)
	call	_tga_get_line_height
	addl	$1, %eax
	addl	%eax, 8(%ebp)
L36:
	.loc 1 233 0 discriminator 2
	addl	$16, -12(%ebp)
L35:
	.loc 1 233 0 is_stmt 0 discriminator 1
	cmpl	$255, -12(%ebp)
	jle	L38
	.loc 1 244 0 is_stmt 1
	movl	20(%ebp), %eax
	movl	1176(%eax), %eax
	movl	%eax, (%esp)
	call	_tga_set_font
	.loc 1 248 0
	movl	_font_picture_test_string, %eax
	testl	%eax, %eax
	je	L39
	.loc 1 250 0
	movl	_left_margin, %eax
	movl	-16(%ebp), %edx
	movl	%edx, 16(%esp)
	movl	$0, 12(%esp)
	movl	$LC41, 8(%esp)
	movl	8(%ebp), %edx
	movl	%edx, 4(%esp)
	movl	%eax, (%esp)
	call	_tga_draw_string
	.loc 1 251 0
	movl	20(%ebp), %eax
	movl	%eax, 4(%esp)
	movl	16(%ebp), %eax
	movl	%eax, (%esp)
	call	_tga_get_line_height
	addl	$1, %eax
	addl	%eax, 8(%ebp)
L39:
	.loc 1 253 0
	movl	8(%ebp), %eax
	.loc 1 254 0
	leave
	.cfi_restore 5
	.cfi_def_cfa 4, 4
	ret
	.cfi_endproc
LFE19:
	.def	___main;	.scl	2;	.type	32;	.endef
	.section .rdata,"dr"
LC42:
	.ascii "*\0"
LC43:
	.ascii "\0"
	.align 4
LC44:
	.ascii "Note: For font format 1 BBX mode has been set to 3\0"
LC46:
	.ascii "Runtime test: %.2lf sec\0"
LC47:
	.ascii "bdf.tga\0"
LC48:
	.ascii "  \0"
	.text
	.globl	_main
	.def	_main;	.scl	2;	.type	32;	.endef
_main:
LFB20:
	.loc 1 261 0
	.cfi_startproc
	pushl	%ebp
	.cfi_def_cfa_offset 8
	.cfi_offset 5, -8
	movl	%esp, %ebp
	.cfi_def_cfa_register 5
	andl	$-16, %esp
	subl	$160, %esp
	.loc 1 261 0
	call	___main
LVL0:
	.loc 1 264 0
	movl	$0, 152(%esp)
	.loc 1 265 0
	movl	$0, 148(%esp)
	.loc 1 266 0
	movl	$LC42, 128(%esp)
	.loc 1 267 0
	movl	$LC43, 124(%esp)
	.loc 1 270 0
	movl	12(%ebp), %eax
	addl	$4, %eax
	movl	%eax, 12(%ebp)
L50:
	.loc 1 280 0
	movl	12(%ebp), %eax
	movl	(%eax), %eax
	testl	%eax, %eax
	je	L64
	.loc 1 282 0
	movl	$104, 4(%esp)
	leal	12(%ebp), %eax
	movl	%eax, (%esp)
	call	_is_arg
	testl	%eax, %eax
	je	L44
	.loc 1 284 0
	call	_help
	.loc 1 285 0
	movl	$1, (%esp)
	call	_exit
L44:
	.loc 1 287 0
	movl	$118, 4(%esp)
	leal	12(%ebp), %eax
	movl	%eax, (%esp)
	call	_is_arg
	testl	%eax, %eax
	je	L45
	.loc 1 289 0
	movl	$1, 148(%esp)
	jmp	L50
L45:
	.loc 1 291 0
	movl	$97, 4(%esp)
	leal	12(%ebp), %eax
	movl	%eax, (%esp)
	call	_is_arg
	testl	%eax, %eax
	je	L47
	.loc 1 293 0
	movl	$1, _font_picture_extra_info
	jmp	L50
L47:
	.loc 1 295 0
	movl	$116, 4(%esp)
	leal	12(%ebp), %eax
	movl	%eax, (%esp)
	call	_is_arg
	testl	%eax, %eax
	je	L48
	.loc 1 297 0
	movl	$1, _font_picture_test_string
	jmp	L50
L48:
	.loc 1 299 0
	movl	$114, 4(%esp)
	leal	12(%ebp), %eax
	movl	%eax, (%esp)
	call	_is_arg
	testl	%eax, %eax
	je	L49
	.loc 1 301 0
	movl	$1, _runtime_test
	jmp	L50
L49:
	.loc 1 303 0
	movl	$_build_bbx_mode, 8(%esp)
	movl	$98, 4(%esp)
	leal	12(%ebp), %eax
	movl	%eax, (%esp)
	call	_get_num_arg
	testl	%eax, %eax
	jne	L50
	.loc 1 306 0
	movl	$_font_format, 8(%esp)
	movl	$102, 4(%esp)
	leal	12(%ebp), %eax
	movl	%eax, (%esp)
	call	_get_num_arg
	testl	%eax, %eax
	jne	L50
	.loc 1 309 0
	movl	$_left_margin, 8(%esp)
	movl	$108, 4(%esp)
	leal	12(%ebp), %eax
	movl	%eax, (%esp)
	call	_get_num_arg
	testl	%eax, %eax
	jne	L50
	.loc 1 312 0
	leal	124(%esp), %eax
	movl	%eax, 8(%esp)
	movl	$100, 4(%esp)
	leal	12(%ebp), %eax
	movl	%eax, (%esp)
	call	_get_str_arg
	testl	%eax, %eax
	jne	L50
	.loc 1 315 0
	movl	$_c_filename, 8(%esp)
	movl	$111, 4(%esp)
	leal	12(%ebp), %eax
	movl	%eax, (%esp)
	call	_get_str_arg
	testl	%eax, %eax
	jne	L50
	.loc 1 318 0
	movl	$_target_fontname, 8(%esp)
	movl	$110, 4(%esp)
	leal	12(%ebp), %eax
	movl	%eax, (%esp)
	call	_get_str_arg
	testl	%eax, %eax
	jne	L50
	.loc 1 321 0
	leal	128(%esp), %eax
	movl	%eax, 8(%esp)
	movl	$109, 4(%esp)
	leal	12(%ebp), %eax
	movl	%eax, (%esp)
	call	_get_str_arg
	testl	%eax, %eax
	jne	L50
	.loc 1 326 0
	movl	12(%ebp), %eax
	movl	(%eax), %eax
	movl	%eax, 152(%esp)
	.loc 1 327 0
	movl	12(%ebp), %eax
	addl	$4, %eax
	movl	%eax, 12(%ebp)
	.loc 1 280 0
	jmp	L50
L64:
	.loc 1 281 0
	nop
	.loc 1 331 0
	cmpl	$0, 152(%esp)
	jne	L51
	.loc 1 333 0
	call	_help
	.loc 1 334 0
	movl	$1, (%esp)
	call	_exit
L51:
	.loc 1 337 0
	movl	$0, 156(%esp)
	.loc 1 338 0
	movl	124(%esp), %eax
	movzbl	(%eax), %eax
	testb	%al, %al
	je	L52
	.loc 1 340 0
	movl	124(%esp), %eax
	movl	$0, 16(%esp)
	movl	$LC42, 12(%esp)
	movl	$0, 8(%esp)
	movl	$0, 4(%esp)
	movl	%eax, (%esp)
	call	_bf_OpenFromFile
	movl	%eax, 156(%esp)
	.loc 1 341 0
	cmpl	$0, 156(%esp)
	jne	L52
	.loc 1 343 0
	movl	$1, (%esp)
	call	_exit
L52:
	.loc 1 347 0
	movl	_font_format, %eax
	cmpl	$2, %eax
	jne	L53
	.loc 1 349 0
	movl	$3, _build_bbx_mode
L53:
	.loc 1 354 0
	movl	_font_format, %eax
	movl	%eax, %ecx
	movl	128(%esp), %eax
	movl	_build_bbx_mode, %edx
	movl	%ecx, 16(%esp)
	movl	%eax, 12(%esp)
	movl	%edx, 8(%esp)
	movl	148(%esp), %eax
	movl	%eax, 4(%esp)
	movl	152(%esp), %eax
	movl	%eax, (%esp)
	call	_bf_OpenFromFile
	movl	%eax, 140(%esp)
	.loc 1 356 0
	cmpl	$0, 140(%esp)
	jne	L54
	.loc 1 358 0
	movl	$1, (%esp)
	call	_exit
L54:
	.loc 1 361 0
	movl	_font_format, %eax
	cmpl	$2, %eax
	jne	L55
	.loc 1 364 0
	movl	$LC44, 4(%esp)
	movl	140(%esp), %eax
	movl	%eax, (%esp)
	call	_bf_Log
L55:
	.loc 1 367 0
	cmpl	$0, 156(%esp)
	je	L56
	.loc 1 369 0
	movl	$600, 4(%esp)
	movl	$1024, (%esp)
	call	_tga_init
	.loc 1 370 0
	movl	140(%esp), %eax
	movl	%eax, 12(%esp)
	movl	156(%esp), %eax
	movl	%eax, 8(%esp)
	movl	152(%esp), %eax
	movl	%eax, 4(%esp)
	movl	$0, (%esp)
	call	_tga_draw_font
	movl	%eax, 136(%esp)
	.loc 1 372 0
	movl	_runtime_test, %eax
	testl	%eax, %eax
	je	L57
LBB2:
	.loc 1 375 0
	call	_clock
	movl	%eax, 132(%esp)
	.loc 1 377 0
	leal	60(%esp), %eax
	movl	%eax, (%esp)
	call	_fd_init
	.loc 1 378 0
	movl	140(%esp), %eax
	movl	1176(%eax), %eax
	movl	%eax, 4(%esp)
	leal	60(%esp), %eax
	movl	%eax, (%esp)
	call	_fd_set_font
	.loc 1 379 0
	movl	$0, 144(%esp)
	jmp	L58
L59:
	.loc 1 380 0 discriminator 3
	movl	_left_margin, %eax
	movl	$LC41, 12(%esp)
	movl	136(%esp), %edx
	movl	%edx, 8(%esp)
	movl	%eax, 4(%esp)
	leal	60(%esp), %eax
	movl	%eax, (%esp)
	call	_fd_draw_string
	.loc 1 379 0 discriminator 3
	addl	$1, 144(%esp)
L58:
	.loc 1 379 0 is_stmt 0 discriminator 1
	cmpl	$9999, 144(%esp)
	jle	L59
	.loc 1 381 0 is_stmt 1
	call	_clock
	subl	132(%esp), %eax
	movl	%eax, 32(%esp)
	movl	$0, 36(%esp)
	fildq	32(%esp)
	fstpl	40(%esp)
	fldl	40(%esp)
	fldl	LC45
	fdivrp	%st, %st(1)
	fstpl	8(%esp)
	movl	$LC46, 4(%esp)
	movl	140(%esp), %eax
	movl	%eax, (%esp)
	call	_bf_Log
L57:
LBE2:
	.loc 1 384 0
	movl	$LC47, (%esp)
	call	_tga_save
L56:
	.loc 1 388 0
	movl	_c_filename, %eax
	testl	%eax, %eax
	je	L60
	.loc 1 391 0
	movl	_font_format, %eax
	testl	%eax, %eax
	jne	L61
	.loc 1 393 0
	movl	_target_fontname, %edx
	movl	_c_filename, %eax
	movl	$LC48, 12(%esp)
	movl	%edx, 8(%esp)
	movl	%eax, 4(%esp)
	movl	140(%esp), %eax
	movl	%eax, (%esp)
	call	_bf_WriteUCGCByFilename
	jmp	L60
L61:
	.loc 1 398 0
	movl	_target_fontname, %edx
	movl	_c_filename, %eax
	movl	$LC48, 12(%esp)
	movl	%edx, 8(%esp)
	movl	%eax, 4(%esp)
	movl	140(%esp), %eax
	movl	%eax, (%esp)
	call	_bf_WriteU8G2CByFilename
L60:
	.loc 1 403 0
	movl	140(%esp), %eax
	movl	%eax, (%esp)
	call	_bf_Close
	.loc 1 404 0
	movl	$0, %eax
	.loc 1 405 0
	leave
	.cfi_restore 5
	.cfi_def_cfa 4, 4
	ret
	.cfi_endproc
LFE20:
.lcomm _s.3888,256,32
	.section .rdata,"dr"
	.align 8
LC45:
	.long	0
	.long	1083129856
	.text
Letext0:
	.file 2 "/usr/lib/gcc/i686-pc-msys/6.4.0/include/stddef.h"
	.file 3 "/usr/include/machine/_default_types.h"
	.file 4 "/usr/include/sys/lock.h"
	.file 5 "/usr/include/sys/_types.h"
	.file 6 "/usr/include/sys/reent.h"
	.file 7 "/usr/include/stdlib.h"
	.file 8 "/usr/include/sys/_stdint.h"
	.file 9 "/usr/include/sys/types.h"
	.file 10 "/usr/include/time.h"
	.file 11 "/usr/include/cygwin/time.h"
	.file 12 "/usr/include/cygwin/signal.h"
	.file 13 "/usr/include/stdio.h"
	.file 14 "bdf_glyph.h"
	.file 15 "bdf_font.h"
	.file 16 "fd.h"